Microsoft (R) Macro Assembler Version 6.15.8803		    02/16/10 00:49:30
lastfeatures.hpp					     Page 1 - 1


				TITLE	 lastfeatures.hpp
				SUBTITLE This file was automatically generated by the 32-bit H++ Compiler


					.486P
					.MODEL flat,stdcall
					.STACK 000100000h
					INCLUDE stdhpp\hcclib32.INC	; the H++ library.
			      C .NOLIST
			      C .LIST
			      C 
			      C 
			      C ; when the "C" calling convension is used, then we must use :PROC;
			      C ; when the stdcall calling convension is used, we must use :PROTO;
			      C 
			      C EXTERN __purecall: PROTO;
			      C 
			      C ; H++  C O N S O L E   A P I s 
			      C 
			      C EXTERN Console_ClearScreen:PROTO;
			      C EXTERN Console_ReadString:PROTO;
			      C EXTERN Console_ReadChar:PROTO;
			      C EXTERN Console_WriteString:PROTO;
			      C EXTERN Console_WriteCrlf:PROTO;
			      C EXTERN Console_WriteChar:PROTO;
			      C EXTERN Console_SetCursorPos:PROTO;
			      C EXTERN Console_SetTextColor:PROTO;
			      C EXTERN Console_SetConsoleSize:PROTO;
			      C EXTERN Console_SetTitle:PROTO;
			      C EXTERN Console_GetTitle:PROTO;
			      C EXTERN Console_MoveWindow:PROTO;
			      C 
			      C EXTERN Console_ReadDouble:PROTO;
			      C EXTERN Console_ReadInteger:PROTO;
			      C EXTERN Console_WriteDouble:PROTO;
			      C EXTERN Console_WriteInteger:PROTO;
			      C EXTERN Console_WriteInteger64:PROTO;
			      C EXTERN Console_WriteBoolean:PROTO;
			      C 
			      C ; H++  F I L E   A P I s 
			      C 
			      C EXTERN File_Open:PROTO;
			      C EXTERN File_Close:PROTO;
			      C EXTERN File_Read:PROTO;
			      C EXTERN File_Write:PROTO;
			      C EXTERN File_Seek:PROTO;
			      C EXTERN File_FileSize:PROTO;
			      C 
			      C ; H++  S Y S T E M   A P I s 
			      C 
			      C EXTERN System_Exit:PROTO;
			      C EXTERN System_LastError:PROTO;
			      C EXTERN System_CommandLineArgs:PROTO;
			      C EXTERN System_Execute:PROTO;
			      C EXTERN System_GetTickCount:PROTO;
			      C EXTERN System_Sleep:PROTO;
			      C EXTERN System_Debug_OutputString:PROTO;
			      C EXTERN System_BreakPoint:PROTO;
			      C EXTERN System_IsDebuggerPresent:PROTO;
			      C 
			      C ; H++  M A T H   A P I s
			      C 
			      C EXTERN Math_Init:PROTO;
			      C EXTERN Math_Abs:PROTO;
			      C EXTERN Math_ChangeSign:PROTO;
			      C EXTERN Math_Sqrt:PROTO;
			      C EXTERN Math_Sqr:PROTO;
			      C 
			      C EXTERN Math_Sin:PROTO;
			      C EXTERN Math_Cos:PROTO;
			      C EXTERN Math_Tan:PROTO;
			      C EXTERN Math_ArcTan:PROTO;
			      C EXTERN Math_Round:PROTO;
			      C 
			      C EXTERN Math_Modulus:PROTO;
			      C EXTERN Math_IEEEModulus:PROTO;
			      C EXTERN Math_ModulusTruncateDivisor:PROTO;
			      C 
			      C EXTERN Math_Ln:PROTO;
			      C EXTERN Math_log2:PROTO;
			      C EXTERN Math_log10:PROTO;
			      C EXTERN Math_Exp:PROTO;
			      C 
			      C EXTERN Math_MantissaOf:PROTO;
			      C EXTERN Math_GetNumberFrom:PROTO;
			      C EXTERN Math_LogN_base:PROTO;
			      C 
			      C EXTERN Math_Max:PROTO;
			      C EXTERN Math_Min:PROTO;
			      C EXTERN Math_Sign:PROTO;
			      C EXTERN Math_Pow2:PROTO;
			      C EXTERN Math_Pow:PROTO;
			      C EXTERN Math_Gcd:PROTO;
			      C EXTERN Math_Odd:PROTO;
			      C EXTERN Math_Even:PROTO;
			      C EXTERN Math_Trunc:PROTO;
			      C 
			      C ; N O N - I N T R I N S I C   M A T H   F U N C T I O N S 
			      C 
			      C EXTERN Math_Cotan:PROTO;
			      C EXTERN Math_Sec:PROTO;
			      C EXTERN Math_Cosec:PROTO;
			      C EXTERN Math_Inverse_Arcsin:PROTO;
			      C EXTERN Math_Inverse_Arccos:PROTO;
			      C EXTERN Math_Inverse_Arcsec:PROTO;
			      C EXTERN Math_Inverse_Arccosec:PROTO;
			      C EXTERN Math_Inverse_Arccotan:PROTO;
			      C 
			      C ; M A T H   C O N S T A N T S  
			      C EXTERN Math_pi:PROTO;
			      C EXTERN Math_log_10_base2:PROTO;
			      C EXTERN Math_log_e_base2:PROTO;
			      C EXTERN Math_log_2_base10:PROTO;
			      C EXTERN Math_log_2_base_e:PROTO;
			      C 
			      C 
			      C ; I N T E G E R   S P E C I F I C S   ( U T I L I T I E S )
			      C EXTERN Integer_toStringEx:PROTO;
			      C EXTERN Integer_toString:PROTO;
			      C EXTERN Integer_fromString:PROTO;
			      C 
			      C 
			      C ; F L O A T I N G   P O I N T   S P E C I F I C  (U T I L I T I E S )
			      C 
			      C EXTERN FloatingPoint_Compare:PROTO;
			      C EXTERN FloatingPoint_CompareToInteger:PROTO;
			      C EXTERN FloatingPoint_ToInt:PROTO;
			      C EXTERN FloatingPoint_ToInt64:PROTO;
			      C EXTERN FloatingPoint_FromInt:PROTO;
			      C EXTERN FloatingPoint_FromInt64:PROTO;
			      C 
			      C EXTERN FloatingPoint_toString:PROTO;
			      C EXTERN FloatingPoint_toStringEx:PROTO;
			      C EXTERN FloatingPoint_fromString:PROTO;
			      C 
			      C ; H++  S T R I N G  H A N D L I N G   A P I s 
			      C 
			      C EXTERN StringHandling_StringLength2:PROTO;
			      C EXTERN StringHandling_StringLength:PROTO;
			      C EXTERN StringHandling_StringCopy:PROTO;
			      C EXTERN StringHandling_StringCompare:PROTO;
			      C EXTERN StringHandling_StringUCase:PROTO;
			      C EXTERN StringHandling_StringLCase:PROTO;
			      C EXTERN StringHandling_StringSet:PROTO;
			      C 
			      C ; H++  M E M O R Y   H A N D L I N G   A P I s
			      C 
			      C EXTERN System_Memory_Memset:PROTO;
			      C EXTERN System_Memory_GetProcessHeap:PROTO
			      C EXTERN System_Memory_Alloc:PROTO
			      C EXTERN System_Memory_Free:PROTO
			      C EXTERN System_Memory_Size:PROTO
			      C EXTERN System_Memory_New:PROTO
			      C EXTERN System_Memory_Destroy:PROTO
			      C EXTERN System_Memory_SizeFor:PROTO
			      C 
			      C 
			      C EXTERN System_GetCommandLineArgv:PROTO;
			      C 
			      C EXTERN System_ShowMessage:PROTO;
			      C 
			      C EXTERN ConsoleHandle:DWORD;
			      C ;
			      C .LIST
			      C 

				;Windows API prototypes
				GetVersion PROTO

				;This assembly file was generated by the 32-bit H++ Compiler

 00000000			.CODE ;code segment
 00000000			LastFeatures_DoubleProxy PROC NEAR 
 00000000  55				push	EBP
 00000001  8B EC			mov	EBP,ESP
 00000003  51				push	ECX 
 00000004  53				push	EBX 
 00000005  56				push	ESI 
 00000006  57				push	EDI 
 00000007  8B 4D FC			mov	ECX,dword ptr [EBP-0004h]
 0000000A  E8 00000158			call	 LastFeatures_SimpleObject ;base constructor call
 0000000F  8B 4D FC			mov	ECX,dword ptr [EBP-0004h] 
 00000012  C7 01 00000000 R		mov	dword ptr [ECX],OFFSET  @@class_vptr_vtbl@@__LastFeatures_DoubleProxy 
 00000018  8B 4D FC			mov	ECX,dword ptr [EBP-0004h] 
 0000001B  E8 00001A22			call	 __member_Init@LastFeatures_DoubleProxy 
 00000020  8D 05 00000132 R		lea	EAX,OFFSET $S000702
 00000026  6A 00			push	000000000h
 00000028  50				push	EAX 
 00000029  E8 00000000 E		call	 Console_WriteString
 0000002E  E8 00000000 E		call	 Console_WriteCrLf 

 00000033  5F				pop	EDI
 00000034  5E				pop	ESI 
 00000035  5B				pop	EBX 
 00000036  8B E5			mov	ESP,EBP
 00000038  5D				pop	EBP 
 00000039  C3				ret	
 0000003A			LastFeatures_DoubleProxy ENDP

 0000003A			LastFeatures_DoubleProxy_Swap PROC NEAR 
 0000003A  55				push	EBP
 0000003B  8B EC			mov	EBP,ESP
 0000003D  83 EC 10			sub	ESP,000000010h
 00000040  53				push	EBX 
 00000041  56				push	ESI 
 00000042  57				push	EDI 
 00000043  89 4D F0			mov	dword ptr [EBP-0010h],ECX
 00000046  8B 4D F0			mov	ECX,dword ptr [EBP-0010h]
 00000049  8B 41 08			mov	EAX,dword ptr [ECX+0008h]
 0000004C  8B 51 04			mov	EDX,dword ptr [ECX+0004h] 
 0000004F  50				push	EAX
 00000050  52				push	EDX 
 00000051  DD C0			ffree	st
 00000053  DD 04 24			fld	qword ptr [ESP]
 00000056  DD 5D F8			fstp	qword ptr [EBP-0008h]
 00000059  5A				pop	EDX
 0000005A  58				pop	EAX 
 0000005B  8B 45 08			mov	EAX,dword ptr [EBP+0008h]
 0000005E  8D 5D F4			lea	EBX,dword ptr [EBP-000Ch]
 00000061  89 03			mov	dword ptr [EBX],EAX
 00000063  8B 4D F4			mov	ECX,dword ptr [EBP-12]
 00000066  8B 41 08			mov	EAX,dword ptr [ECX+0008h]
 00000069  8B 51 04			mov	EDX,dword ptr [ECX+0004h] 
 0000006C  50				push	EAX
 0000006D  52				push	EDX 
 0000006E  DD C0			ffree	st
 00000070  DD 04 24			fld	qword ptr [ESP]
 00000073  8B 4D F0			mov	ECX,dword ptr [EBP-0010h]
 00000076  DD 59 04			fstp	qword ptr [ECX+0004h]
 00000079  5A				pop	EDX
 0000007A  58				pop	EAX 
 0000007B  8B 4D F4			mov	ECX,dword ptr [EBP-12]
 0000007E  8D 41 04			lea	EAX,dword ptr [ECX+0004h]
 00000081  50				push	EAX
 00000082  8B 55 F8			mov	EDX,dword ptr [EBP-0008h]
 00000085  8B 45 FC			mov	EAX,dword ptr [EBP-0004h] 
 00000088  50				push	EAX
 00000089  52				push	EDX 
 0000008A  DD C0			ffree	st
 0000008C  DD 04 24			fld	qword ptr [ESP]
 0000008F  5A				pop	EDX
 00000090  58				pop	EAX 
 00000091  5B				pop	EBX
 00000092  DD 1B			fstp	qword ptr [EBX]
 00000094			$L000709:

 00000094  5F				pop	EDI
 00000095  5E				pop	ESI 
 00000096  5B				pop	EBX 
 00000097  8B E5			mov	ESP,EBP
 00000099  5D				pop	EBP 
 0000009A  C2 0004			retn	000000004h
 0000009D			LastFeatures_DoubleProxy_Swap ENDP

 0000009D			LastFeatures_DoubleProxy_isEqual PROC NEAR 
 0000009D  55				push	EBP
 0000009E  8B EC			mov	EBP,ESP
 000000A0  83 EC 08			sub	ESP,000000008h
 000000A3  53				push	EBX 
 000000A4  56				push	ESI 
 000000A5  57				push	EDI 
 000000A6  89 4D F8			mov	dword ptr [EBP-0008h],ECX
 000000A9  8B 45 08			mov	EAX,dword ptr [EBP+0008h]
 000000AC  8D 5D FC			lea	EBX,dword ptr [EBP-0004h]
 000000AF  89 03			mov	dword ptr [EBX],EAX
 000000B1  8B 4D F8			mov	ECX,dword ptr [EBP-0008h]
 000000B4  8B 41 08			mov	EAX,dword ptr [ECX+0008h]
 000000B7  8B 51 04			mov	EDX,dword ptr [ECX+0004h] 
 000000BA  50				push	EAX
 000000BB  52				push	EDX 
 000000BC  8B 4D FC			mov	ECX,dword ptr [EBP-4]
 000000BF  8B 41 08			mov	EAX,dword ptr [ECX+0008h]
 000000C2  8B 51 04			mov	EDX,dword ptr [ECX+0004h] 
 000000C5  50				push	EAX
 000000C6  52				push	EDX 
 000000C7  E8 00000000 E		call	 FloatingPoint_Compare
 000000CC  83 F8 00			cmp	EAX,000000000h
 000000CF  F7 D8			neg	EAX
 000000D1  0F 9C C0			setl	AL
 000000D4  EB 00			jmp	OFFSET $L000706
 000000D6			$L000706:

 000000D6  5F				pop	EDI
 000000D7  5E				pop	ESI 
 000000D8  5B				pop	EBX 
 000000D9  8B E5			mov	ESP,EBP
 000000DB  5D				pop	EBP 
 000000DC  C2 0004			retn	000000004h
 000000DF			LastFeatures_DoubleProxy_isEqual ENDP

 000000DF			LastFeatures_DoubleProxy_lessThan PROC NEAR 
 000000DF  55				push	EBP
 000000E0  8B EC			mov	EBP,ESP
 000000E2  83 EC 08			sub	ESP,000000008h
 000000E5  53				push	EBX 
 000000E6  56				push	ESI 
 000000E7  57				push	EDI 
 000000E8  89 4D F8			mov	dword ptr [EBP-0008h],ECX
 000000EB  8B 45 08			mov	EAX,dword ptr [EBP+0008h]
 000000EE  8D 5D FC			lea	EBX,dword ptr [EBP-0004h]
 000000F1  89 03			mov	dword ptr [EBX],EAX
 000000F3  8B 4D F8			mov	ECX,dword ptr [EBP-0008h]
 000000F6  8B 41 08			mov	EAX,dword ptr [ECX+0008h]
 000000F9  8B 51 04			mov	EDX,dword ptr [ECX+0004h] 
 000000FC  50				push	EAX
 000000FD  52				push	EDX 
 000000FE  8B 4D FC			mov	ECX,dword ptr [EBP-4]
 00000101  8B 41 08			mov	EAX,dword ptr [ECX+0008h]
 00000104  8B 51 04			mov	EDX,dword ptr [ECX+0004h] 
 00000107  50				push	EAX
 00000108  52				push	EDX 
 00000109  E8 00000000 E		call	 FloatingPoint_Compare
 0000010E  83 F8 00			cmp	EAX,000000000h
 00000111  F7 D8			neg	EAX
 00000113  0F 9C C0			setl	AL
 00000116  EB 00			jmp	OFFSET $L000703
 00000118			$L000703:

 00000118  5F				pop	EDI
 00000119  5E				pop	ESI 
 0000011A  5B				pop	EBX 
 0000011B  8B E5			mov	ESP,EBP
 0000011D  5D				pop	EBP 
 0000011E  C2 0004			retn	000000004h
 00000121			LastFeatures_DoubleProxy_lessThan ENDP

 00000121			LastFeatures_HObject_Destructor PROC NEAR 
 00000121  55				push	EBP
 00000122  8B EC			mov	EBP,ESP
 00000124  51				push	ECX 
 00000125  53				push	EBX 
 00000126  56				push	ESI 
 00000127  57				push	EDI 
 00000128			$L000727:

 00000128  5F				pop	EDI
 00000129  5E				pop	ESI 
 0000012A  5B				pop	EBX 
 0000012B  8B E5			mov	ESP,EBP
 0000012D  5D				pop	EBP 
 0000012E  C3				ret	
 0000012F			LastFeatures_HObject_Destructor ENDP

 0000012F			LastFeatures_HObject PROC NEAR 
 0000012F  55				push	EBP
 00000130  8B EC			mov	EBP,ESP
 00000132  51				push	ECX 
 00000133  53				push	EBX 
 00000134  56				push	ESI 
 00000135  57				push	EDI 
 00000136  8B 4D FC			mov	ECX,dword ptr [EBP-0004h]
 00000139  C7 01 00000020 R		mov	dword ptr [ECX],OFFSET  @@class_vptr_vtbl@@__LastFeatures_HObject 

 0000013F  5F				pop	EDI
 00000140  5E				pop	ESI 
 00000141  5B				pop	EBX 
 00000142  8B E5			mov	ESP,EBP
 00000144  5D				pop	EBP 
 00000145  C3				ret	
 00000146			LastFeatures_HObject ENDP

 00000146			LastFeatures_SimpleObject_Destructor PROC NEAR 
 00000146  55				push	EBP
 00000147  8B EC			mov	EBP,ESP
 00000149  51				push	ECX 
 0000014A  53				push	EBX 
 0000014B  56				push	ESI 
 0000014C  57				push	EDI 
 0000014D  8D 05 00000151 R		lea	EAX,OFFSET $S000697
 00000153  6A 00			push	000000000h
 00000155  50				push	EAX 
 00000156  E8 00000000 E		call	 Console_WriteString
 0000015B  E8 00000000 E		call	 Console_WriteCrLf 
 00000160			$L000696:

 00000160  5F				pop	EDI
 00000161  5E				pop	ESI 
 00000162  5B				pop	EBX 
 00000163  8B E5			mov	ESP,EBP
 00000165  5D				pop	EBP 
 00000166  C3				ret	
 00000167			LastFeatures_SimpleObject_Destructor ENDP

 00000167			LastFeatures_SimpleObject PROC NEAR 
 00000167  55				push	EBP
 00000168  8B EC			mov	EBP,ESP
 0000016A  51				push	ECX 
 0000016B  53				push	EBX 
 0000016C  56				push	ESI 
 0000016D  57				push	EDI 
 0000016E  8B 4D FC			mov	ECX,dword ptr [EBP-0004h]
 00000171  C7 01 00000010 R		mov	dword ptr [ECX],OFFSET  @@class_vptr_vtbl@@__LastFeatures_SimpleObject 

 00000177  5F				pop	EDI
 00000178  5E				pop	ESI 
 00000179  5B				pop	EBX 
 0000017A  8B E5			mov	ESP,EBP
 0000017C  5D				pop	EBP 
 0000017D  C3				ret	
 0000017E			LastFeatures_SimpleObject ENDP

 0000017E			LastFeatures_SortDoubleProxy_Sort PROC NEAR 
 0000017E  55				push	EBP
 0000017F  8B EC			mov	EBP,ESP
 00000181  83 EC 0C			sub	ESP,00000000Ch
 00000184  53				push	EBX 
 00000185  56				push	ESI 
 00000186  57				push	EDI 
 00000187  89 4D F4			mov	dword ptr [EBP-000Ch],ECX
 0000018A  B8 00000001			mov	EAX,000000001h
 0000018F  89 45 FC			mov	dword ptr [EBP-0004h],EAX
 00000192  EB 06			jmp	OFFSET $L000792
 00000194			$L000793:
 00000194  8B 45 FC			mov	EAX,dword ptr [EBP-4]
 00000197  FF 45 FC			inc	dword ptr [EBP-4]
 0000019A			$L000792:
 0000019A  8B 45 FC			mov	EAX,dword ptr [EBP-0004h]
 0000019D  50				push	EAX
 0000019E  8B 45 0C			mov	EAX,dword ptr [EBP+000Ch]
 000001A1  5A				pop	EDX
 000001A2  3B D0			cmp	EDX,EAX
 000001A4  0F 9C C0			setl	AL
 000001A7  84 C0			test	AL,AL
 000001A9  0F 84 00000086		jz	OFFSET $L000794
 000001AF  33 C0			xor	EAX,EAX
 000001B1  89 45 F8			mov	dword ptr [EBP-0008h],EAX
 000001B4  EB 06			jmp	OFFSET $L000795
 000001B6			$L000796:
 000001B6  8B 45 F8			mov	EAX,dword ptr [EBP-8]
 000001B9  FF 45 F8			inc	dword ptr [EBP-8]
 000001BC			$L000795:
 000001BC  8B 45 F8			mov	EAX,dword ptr [EBP-0008h]
 000001BF  50				push	EAX
 000001C0  8B 45 FC			mov	EAX,dword ptr [EBP-0004h]
 000001C3  5A				pop	EDX
 000001C4  3B D0			cmp	EDX,EAX
 000001C6  0F 9C C0			setl	AL
 000001C9  84 C0			test	AL,AL
 000001CB  74 63			jz	OFFSET $L000797
 000001CD  8B 5D 08			mov	EBX,dword ptr [EBP+0008h]
 000001D0  8B C3			mov	EAX,EBX 
 000001D2  50				push	EAX
 000001D3  8B 45 F8			mov	EAX,dword ptr [EBP-0008h]
 000001D6  50				push	EAX
 000001D7  B8 00000001			mov	EAX,000000001h
 000001DC  5A				pop	EDX
 000001DD  03 C2			add	EAX,EDX
 000001DF  5E				pop	ESI
 000001E0  8D 0C 86			lea	ECX,dword ptr [ESI+EAX*0004h]
 000001E3  51				push	ECX
 000001E4  8B 5D 08			mov	EBX,dword ptr [EBP+0008h]
 000001E7  8B C3			mov	EAX,EBX 
 000001E9  50				push	EAX
 000001EA  8B 45 F8			mov	EAX,dword ptr [EBP-0008h]
 000001ED  5E				pop	ESI
 000001EE  8D 0C 86			lea	ECX,dword ptr [ESI+EAX*0004h]
 000001F1  51				push	ECX
 000001F2  8B 4C 24 04			mov	ECX,dword ptr [ESP+0004h]
 000001F6  8B 11			mov	EDX,dword ptr [ECX] 
 000001F8  FF 12			call	dword ptr [EDX]
 000001FA  59				pop	ECX
 000001FB  84 C0			test	AL,AL
 000001FD  74 2F			jz	OFFSET $L000798
 000001FF  8B 5D 08			mov	EBX,dword ptr [EBP+0008h]
 00000202  8B C3			mov	EAX,EBX 
 00000204  50				push	EAX
 00000205  8B 45 F8			mov	EAX,dword ptr [EBP-0008h]
 00000208  50				push	EAX
 00000209  B8 00000001			mov	EAX,000000001h
 0000020E  5A				pop	EDX
 0000020F  03 C2			add	EAX,EDX
 00000211  5E				pop	ESI
 00000212  8D 0C 86			lea	ECX,dword ptr [ESI+EAX*0004h]
 00000215  51				push	ECX
 00000216  8B 5D 08			mov	EBX,dword ptr [EBP+0008h]
 00000219  8B C3			mov	EAX,EBX 
 0000021B  50				push	EAX
 0000021C  8B 45 F8			mov	EAX,dword ptr [EBP-0008h]
 0000021F  5E				pop	ESI
 00000220  8D 0C 86			lea	ECX,dword ptr [ESI+EAX*0004h]
 00000223  51				push	ECX
 00000224  8B 4C 24 04			mov	ECX,dword ptr [ESP+0004h]
 00000228  8B 11			mov	EDX,dword ptr [ECX] 
 0000022A  FF 52 08			call	dword ptr [EDX+0008h]
 0000022D  59				pop	ECX
 0000022E			$L000798:
 0000022E  EB 86			jmp	OFFSET $L000796 
 00000230			$L000797:
 00000230  E9 FFFFFF5F			jmp	OFFSET $L000793 
 00000235			$L000794:
 00000235			$L000720:

 00000235  5F				pop	EDI
 00000236  5E				pop	ESI 
 00000237  5B				pop	EBX 
 00000238  8B E5			mov	ESP,EBP
 0000023A  5D				pop	EBP 
 0000023B  C2 0008			retn	000000008h
 0000023E			LastFeatures_SortDoubleProxy_Sort ENDP

 0000023E			LastFeatures_SwapperObject_Swap PROC NEAR 
 0000023E  55				push	EBP
 0000023F  8B EC			mov	EBP,ESP
 00000241  83 EC 10			sub	ESP,000000010h
 00000244  53				push	EBX 
 00000245  56				push	ESI 
 00000246  57				push	EDI 
 00000247  89 4D F0			mov	dword ptr [EBP-0010h],ECX
 0000024A  8D 4D F4			lea	ECX,dword ptr [EBP-000Ch]
 0000024D  E8 FFFFFDAE			call	 LastFeatures_DoubleProxy
 00000252  8B 5D 08			mov	EBX,dword ptr [EBP+0008h]
 00000255  8B C3			mov	EAX,EBX 
 00000257  8B F1			mov	ESI,ECX
 00000259  8D 5D F4			lea	EBX,dword ptr [EBP-000Ch]
 0000025C  8B FB			mov	EDI,EBX 
 0000025E  B9 0000000C			mov	ECX,00000000Ch 
 00000263  FC				cld	
 00000264  F3/ A4			rep movsb	
 00000266  8B 5D 0C			mov	EBX,dword ptr [EBP+000Ch]
 00000269  8B C3			mov	EAX,EBX 
 0000026B  8B F1			mov	ESI,ECX
 0000026D  8B 5D 08			mov	EBX,dword ptr [EBP+0008h]
 00000270  8B C3			mov	EAX,EBX 
 00000272  8B FB			mov	EDI,EBX 
 00000274  B9 0000000C			mov	ECX,00000000Ch 
 00000279  FC				cld	
 0000027A  F3/ A4			rep movsb	
 0000027C  8D 4D F4			lea	ECX,dword ptr [EBP-000Ch]
 0000027F  8B F1			mov	ESI,ECX
 00000281  8B 5D 0C			mov	EBX,dword ptr [EBP+000Ch]
 00000284  8B C3			mov	EAX,EBX 
 00000286  8B FB			mov	EDI,EBX 
 00000288  B9 0000000C			mov	ECX,00000000Ch 
 0000028D  FC				cld	
 0000028E  F3/ A4			rep movsb	
 00000290			$L000714:
 00000290  8D 4D F4			lea	ECX,dword ptr [EBP-000Ch]
 00000293  8B 01			mov	EAX,dword ptr [ECX]
 00000295  FF 50 0C			call	dword ptr [EAX+000Ch]
 00000298			$L000800:

 00000298  5F				pop	EDI
 00000299  5E				pop	ESI 
 0000029A  5B				pop	EBX 
 0000029B  8B E5			mov	ESP,EBP
 0000029D  5D				pop	EBP 
 0000029E  C2 0008			retn	000000008h
 000002A1			LastFeatures_SwapperObject_Swap ENDP

 000002A1			LastFeatures_SwapperObject PROC NEAR 
 000002A1  55				push	EBP
 000002A2  8B EC			mov	EBP,ESP
 000002A4  51				push	ECX 
 000002A5  53				push	EBX 
 000002A6  56				push	ESI 
 000002A7  57				push	EDI 
 000002A8  8B 4D FC			mov	ECX,dword ptr [EBP-0004h]
 000002AB  C7 01 00000024 R		mov	dword ptr [ECX],OFFSET  @@class_vptr_vtbl@@__LastFeatures_SwapperObject 

 000002B1  5F				pop	EDI
 000002B2  5E				pop	ESI 
 000002B3  5B				pop	EBX 
 000002B4  8B E5			mov	ESP,EBP
 000002B6  5D				pop	EBP 
 000002B7  C3				ret	
 000002B8			LastFeatures_SwapperObject ENDP

 000002B8			LastFeatures_TestProperties_get_Shapes PROC NEAR 
 000002B8  55				push	EBP
 000002B9  8B EC			mov	EBP,ESP
 000002BB  51				push	ECX 
 000002BC  53				push	EBX 
 000002BD  56				push	ESI 
 000002BE  57				push	EDI 
 000002BF  8B 4D FC			mov	ECX,dword ptr [EBP-0004h]
 000002C2  8B 01			mov	EAX,dword ptr [ECX]
 000002C4  8B C8			mov	ECX,EAX 
 000002C6  EB 00			jmp	OFFSET $L000743
 000002C8			$L000743:

 000002C8  5F				pop	EDI
 000002C9  5E				pop	ESI 
 000002CA  5B				pop	EBX 
 000002CB  8B E5			mov	ESP,EBP
 000002CD  5D				pop	EBP 
 000002CE  C3				ret	
 000002CF			LastFeatures_TestProperties_get_Shapes ENDP

 000002CF			LastFeatures_TestProperties_put_Shapes PROC NEAR 
 000002CF  55				push	EBP
 000002D0  8B EC			mov	EBP,ESP
 000002D2  81 EC 00000098		sub	ESP,000000098h
 000002D8  53				push	EBX 
 000002D9  56				push	ESI 
 000002DA  57				push	EDI 
 000002DB  89 8D FFFFFF68		mov	dword ptr [EBP-0098h],ECX
 000002E1  8D 4D F4			lea	ECX,dword ptr [EBP-000Ch]
 000002E4  E8 0000045C			call	 LastFeatures_TestProperties_node
 000002E9  8D 4D F4			lea	ECX,dword ptr [EBP-000Ch]
 000002EC  8D 01			lea	EAX,dword ptr [ECX]
 000002EE  50				push	EAX
 000002EF  6A 0C			push	00000000Ch
 000002F1  E8 00000000 E		call	 System_Memory_New
 000002F6  85 C0			test	EAX,EAX
 000002F8  74 04			jz	 $L000802
 000002FA  8B F0			mov	ESI,EAX
 000002FC  EB 02			jmp	 $L000803
 000002FE			$L000802:
 000002FE  33 F6			xor	ESI,ESI
 00000300			$L000803:
 00000300  5B				pop	EBX
 00000301  89 33			mov	dword ptr [EBX],ESI 
 00000303  8B CE			mov	ECX,ESI
 00000305  E8 0000043B			call	 LastFeatures_TestProperties_node
 0000030A  8B C6			mov	EAX,ESI 
 0000030C  8D 4D F4			lea	ECX,dword ptr [EBP-000Ch]
 0000030F  8D 41 04			lea	EAX,dword ptr [ECX+0004h]
 00000312  50				push	EAX
 00000313  6A 0C			push	00000000Ch
 00000315  E8 00000000 E		call	 System_Memory_New
 0000031A  85 C0			test	EAX,EAX
 0000031C  74 04			jz	 $L000804
 0000031E  8B F0			mov	ESI,EAX
 00000320  EB 02			jmp	 $L000805
 00000322			$L000804:
 00000322  33 F6			xor	ESI,ESI
 00000324			$L000805:
 00000324  5B				pop	EBX
 00000325  89 33			mov	dword ptr [EBX],ESI 
 00000327  8B CE			mov	ECX,ESI
 00000329  E8 00000417			call	 LastFeatures_TestProperties_node
 0000032E  8B C6			mov	EAX,ESI 
 00000330  8D 4D F4			lea	ECX,dword ptr [EBP-000Ch]
 00000333  8D 41 08			lea	EAX,dword ptr [ECX+0008h]
 00000336  50				push	EAX
 00000337  6A 04			push	000000004h
 00000339  E8 00000000 E		call	 System_Memory_New
 0000033E  85 C0			test	EAX,EAX
 00000340  74 04			jz	 $L000806
 00000342  8B F0			mov	ESI,EAX
 00000344  EB 02			jmp	 $L000807
 00000346			$L000806:
 00000346  33 F6			xor	ESI,ESI
 00000348			$L000807:
 00000348  5B				pop	EBX
 00000349  89 33			mov	dword ptr [EBX],ESI 
 0000034B  8B CE			mov	ECX,ESI
 0000034D  E8 FFFFFDDD			call	 LastFeatures_HObject
 00000352  8B C6			mov	EAX,ESI 
 00000354  8D 4D F4			lea	ECX,dword ptr [EBP-000Ch]
 00000357  8B 01			mov	EAX,dword ptr [ECX]
 00000359  8B C8			mov	ECX,EAX 
 0000035B  8D 5D F0			lea	EBX,dword ptr [EBP-0010h]
 0000035E  89 03			mov	dword ptr [EBX],EAX
 00000360  8B 4D F0			mov	ECX,dword ptr [EBP-16]
 00000363  8B F1			mov	ESI,ECX
 00000365  85 C9			test	ECX,ECX
 00000367  74 05			jz	OFFSET $L000809
 00000369  E8 00000342			call	 LastFeatures_TestProperties_node_Destructor
 0000036E			$L000809:
 0000036E  56				push	ESI
 0000036F  E8 00000000 E		call	 System_Memory_Destroy
 00000374  8D 4D F4			lea	ECX,dword ptr [EBP-000Ch]
 00000377  8D 01			lea	EAX,dword ptr [ECX]
 00000379  50				push	EAX
 0000037A  33 C0			xor	EAX,EAX
 0000037C  5B				pop	EBX
 0000037D  89 03			mov	dword ptr [EBX],EAX
 0000037F  8D 4D F4			lea	ECX,dword ptr [EBP-000Ch]
 00000382  8D 01			lea	EAX,dword ptr [ECX]
 00000384  50				push	EAX
 00000385  8D 4D F4			lea	ECX,dword ptr [EBP-000Ch]
 00000388  8B 41 04			mov	EAX,dword ptr [ECX+0004h]
 0000038B  8B C8			mov	ECX,EAX 
 0000038D  5B				pop	EBX
 0000038E  89 03			mov	dword ptr [EBX],EAX
 00000390  8D 4D F4			lea	ECX,dword ptr [EBP-000Ch]
 00000393  8D 41 04			lea	EAX,dword ptr [ECX+0004h]
 00000396  50				push	EAX
 00000397  6A 0C			push	00000000Ch
 00000399  E8 00000000 E		call	 System_Memory_New
 0000039E  85 C0			test	EAX,EAX
 000003A0  74 04			jz	 $L000810
 000003A2  8B F0			mov	ESI,EAX
 000003A4  EB 02			jmp	 $L000811
 000003A6			$L000810:
 000003A6  33 F6			xor	ESI,ESI
 000003A8			$L000811:
 000003A8  5B				pop	EBX
 000003A9  89 33			mov	dword ptr [EBX],ESI 
 000003AB  8B CE			mov	ECX,ESI
 000003AD  E8 00000393			call	 LastFeatures_TestProperties_node
 000003B2  8B C6			mov	EAX,ESI 
 000003B4  8D 4D F4			lea	ECX,dword ptr [EBP-000Ch]
 000003B7  8B 41 04			mov	EAX,dword ptr [ECX+0004h]
 000003BA  8B C8			mov	ECX,EAX 
 000003BC  8D 5D EC			lea	EBX,dword ptr [EBP-0014h]
 000003BF  89 03			mov	dword ptr [EBX],EAX
 000003C1  8B 4D EC			mov	ECX,dword ptr [EBP-20]
 000003C4  8B F1			mov	ESI,ECX
 000003C6  85 C9			test	ECX,ECX
 000003C8  74 05			jz	OFFSET $L000813
 000003CA  E8 000002E1			call	 LastFeatures_TestProperties_node_Destructor
 000003CF			$L000813:
 000003CF  56				push	ESI
 000003D0  E8 00000000 E		call	 System_Memory_Destroy
 000003D5  8D 4D F4			lea	ECX,dword ptr [EBP-000Ch]
 000003D8  8D 41 04			lea	EAX,dword ptr [ECX+0004h]
 000003DB  50				push	EAX
 000003DC  8D 4D F4			lea	ECX,dword ptr [EBP-000Ch]
 000003DF  8B 01			mov	EAX,dword ptr [ECX]
 000003E1  8B C8			mov	ECX,EAX 
 000003E3  5B				pop	EBX
 000003E4  89 03			mov	dword ptr [EBX],EAX
 000003E6  8D 4D F4			lea	ECX,dword ptr [EBP-000Ch]
 000003E9  8D 01			lea	EAX,dword ptr [ECX]
 000003EB  50				push	EAX
 000003EC  6A 0C			push	00000000Ch
 000003EE  E8 00000000 E		call	 System_Memory_New
 000003F3  85 C0			test	EAX,EAX
 000003F5  74 04			jz	 $L000814
 000003F7  8B F0			mov	ESI,EAX
 000003F9  EB 02			jmp	 $L000815
 000003FB			$L000814:
 000003FB  33 F6			xor	ESI,ESI
 000003FD			$L000815:
 000003FD  5B				pop	EBX
 000003FE  89 33			mov	dword ptr [EBX],ESI 
 00000400  8B CE			mov	ECX,ESI
 00000402  E8 0000033E			call	 LastFeatures_TestProperties_node
 00000407  8B C6			mov	EAX,ESI 
 00000409  8D 4D F4			lea	ECX,dword ptr [EBP-000Ch]
 0000040C  8B 01			mov	EAX,dword ptr [ECX]
 0000040E  8B C8			mov	ECX,EAX 
 00000410  8D 5D F0			lea	EBX,dword ptr [EBP-0010h]
 00000413  89 03			mov	dword ptr [EBX],EAX
 00000415  8D 4D F4			lea	ECX,dword ptr [EBP-000Ch]
 00000418  8D 01			lea	EAX,dword ptr [ECX]
 0000041A  50				push	EAX
 0000041B  8B 45 F0			mov	EAX,dword ptr [EBP-16]
 0000041E  5B				pop	EBX
 0000041F  89 03			mov	dword ptr [EBX],EAX
 00000421  8B 8D FFFFFF68		mov	ECX,dword ptr [EBP-0098h]
 00000427  8B 01			mov	EAX,dword ptr [ECX]
 00000429  8B C8			mov	ECX,EAX 
 0000042B  50				push	EAX
 0000042C  33 C0			xor	EAX,EAX
 0000042E  5E				pop	ESI
 0000042F  6B C0 0C			imul	EAX,00000000Ch
 00000432  8D 0C 30			lea	ECX,dword ptr [ESI+EAX]
 00000435  8B 11			mov	EDX,dword ptr [ECX]
 00000437  FF 52 0C			call	dword ptr [EDX+000Ch]
 0000043A  8B 8D FFFFFF68		mov	ECX,dword ptr [EBP-0098h]
 00000440  8B 41 04			mov	EAX,dword ptr [ECX+0004h]
 00000443  8B C8			mov	ECX,EAX 
 00000445  50				push	EAX
 00000446  33 C0			xor	EAX,EAX
 00000448  5E				pop	ESI
 00000449  6B C0 0C			imul	EAX,00000000Ch
 0000044C  8D 0C 30			lea	ECX,dword ptr [ESI+EAX]
 0000044F  8B 11			mov	EDX,dword ptr [ECX]
 00000451  FF 52 0C			call	dword ptr [EDX+000Ch]
 00000454  8B 8D FFFFFF68		mov	ECX,dword ptr [EBP-0098h]
 0000045A  8B 41 08			mov	EAX,dword ptr [ECX+0008h]
 0000045D  8B C8			mov	ECX,EAX 
 0000045F  50				push	EAX
 00000460  33 C0			xor	EAX,EAX
 00000462  5E				pop	ESI
 00000463  6B C0 0C			imul	EAX,00000000Ch
 00000466  8D 0C 30			lea	ECX,dword ptr [ESI+EAX]
 00000469  8B 11			mov	EDX,dword ptr [ECX]
 0000046B  FF 52 0C			call	dword ptr [EDX+000Ch]
 0000046E  8B 8D FFFFFF68		mov	ECX,dword ptr [EBP-0098h]
 00000474  8B 01			mov	EAX,dword ptr [ECX]
 00000476  8B C8			mov	ECX,EAX 
 00000478  50				push	EAX
 00000479  B8 00000001			mov	EAX,000000001h
 0000047E  5E				pop	ESI
 0000047F  6B C0 0C			imul	EAX,00000000Ch
 00000482  8D 0C 30			lea	ECX,dword ptr [ESI+EAX]
 00000485  8B 11			mov	EDX,dword ptr [ECX]
 00000487  FF 52 0C			call	dword ptr [EDX+000Ch]
 0000048A  8B 8D FFFFFF68		mov	ECX,dword ptr [EBP-0098h]
 00000490  8B 41 04			mov	EAX,dword ptr [ECX+0004h]
 00000493  8B C8			mov	ECX,EAX 
 00000495  50				push	EAX
 00000496  B8 00000002			mov	EAX,000000002h
 0000049B  5E				pop	ESI
 0000049C  6B C0 0C			imul	EAX,00000000Ch
 0000049F  8D 0C 30			lea	ECX,dword ptr [ESI+EAX]
 000004A2  8B 11			mov	EDX,dword ptr [ECX]
 000004A4  FF 52 0C			call	dword ptr [EDX+000Ch]
 000004A7  8B 8D FFFFFF68		mov	ECX,dword ptr [EBP-0098h]
 000004AD  8B 41 08			mov	EAX,dword ptr [ECX+0008h]
 000004B0  8B C8			mov	ECX,EAX 
 000004B2  50				push	EAX
 000004B3  B8 00000003			mov	EAX,000000003h
 000004B8  5E				pop	ESI
 000004B9  6B C0 0C			imul	EAX,00000000Ch
 000004BC  8D 0C 30			lea	ECX,dword ptr [ESI+EAX]
 000004BF  8B 11			mov	EDX,dword ptr [ECX]
 000004C1  FF 52 0C			call	dword ptr [EDX+000Ch]
 000004C4  8B 8D FFFFFF68		mov	ECX,dword ptr [EBP-0098h]
 000004CA  8B 01			mov	EAX,dword ptr [ECX]
 000004CC  8B C8			mov	ECX,EAX 
 000004CE  50				push	EAX
 000004CF  33 C0			xor	EAX,EAX
 000004D1  5A				pop	EDX
 000004D2  3B D0			cmp	EDX,EAX
 000004D4  0F 95 C0			setnz	AL
 000004D7  84 C0			test	AL,AL
 000004D9  74 14			jz	OFFSET $L000816
 000004DB  8B 8D FFFFFF68		mov	ECX,dword ptr [EBP-0098h]
 000004E1  8B 01			mov	EAX,dword ptr [ECX]
 000004E3  8B C8			mov	ECX,EAX 
 000004E5  85 C0			test	EAX,EAX
 000004E7  74 06			jz	OFFSET $L000818
 000004E9  50				push	EAX
 000004EA  E8 00000000 E		call	 System_Memory_Destroy
 000004EF			$L000818:
 000004EF			$L000816:
 000004EF  8B 8D FFFFFF68		mov	ECX,dword ptr [EBP-0098h]
 000004F5  8B 01			mov	EAX,dword ptr [ECX]
 000004F7  8B C8			mov	ECX,EAX 
 000004F9  85 C0			test	EAX,EAX
 000004FB  74 25			jz	OFFSET $L000819
 000004FD  8B F0			mov	ESI,EAX
 000004FF  8B 4E FC			mov	ECX,dword ptr [ESI-0004h]
 00000502  8D 3C 31			lea	EDI,dword ptr [ESI+ECX]
 00000505  8B DE			mov	EBX,ESI 
 00000507			$L000820:
 00000507  8B CB			mov	ECX,EBX 
 00000509  85 C9			test	ECX,ECX
 0000050B  74 05			jz	OFFSET $L000821
 0000050D  8B 01			mov	EAX,dword ptr [ECX]
 0000050F  FF 50 10			call	dword ptr [EAX+0010h]
 00000512			$L000821:
 00000512  83 C3 0C			add	EBX,00000000Ch
 00000515  3B DF			cmp	EBX,EDI
 00000517  75 EE			jnz	OFFSET $L000820

 00000519  83 C6 FC			add	ESI,0FFFFFFFCh
 0000051C  56				push	ESI
 0000051D  E8 00000000 E		call	 System_Memory_Destroy
 00000522			$L000819:
 00000522  8B 5D 08			mov	EBX,dword ptr [EBP+0008h]
 00000525  8B C3			mov	EAX,EBX 
 00000527  8B 8D FFFFFF68		mov	ECX,dword ptr [EBP-0098h]
 0000052D  89 01			mov	dword ptr [ECX],EAX
 0000052F  8B 8D FFFFFF68		mov	ECX,dword ptr [EBP-0098h]
 00000535  8B 41 04			mov	EAX,dword ptr [ECX+0004h]
 00000538  8B C8			mov	ECX,EAX 
 0000053A  85 C0			test	EAX,EAX
 0000053C  74 25			jz	OFFSET $L000822
 0000053E  8B F0			mov	ESI,EAX
 00000540  8B 4E FC			mov	ECX,dword ptr [ESI-0004h]
 00000543  8D 3C 31			lea	EDI,dword ptr [ESI+ECX]
 00000546  8B DE			mov	EBX,ESI 
 00000548			$L000823:
 00000548  8B CB			mov	ECX,EBX 
 0000054A  85 C9			test	ECX,ECX
 0000054C  74 05			jz	OFFSET $L000824
 0000054E  8B 01			mov	EAX,dword ptr [ECX]
 00000550  FF 50 10			call	dword ptr [EAX+0010h]
 00000553			$L000824:
 00000553  83 C3 0C			add	EBX,00000000Ch
 00000556  3B DF			cmp	EBX,EDI
 00000558  75 EE			jnz	OFFSET $L000823

 0000055A  83 C6 FC			add	ESI,0FFFFFFFCh
 0000055D  56				push	ESI
 0000055E  E8 00000000 E		call	 System_Memory_Destroy
 00000563			$L000822:
 00000563  8D 85 FFFFFF74		lea	EAX,dword ptr [EBP-008Ch]
 00000569  8B F0			mov	ESI,EAX
 0000056B  8D 7E 78			lea	EDI,dword ptr [ESI+120]
 0000056E  8B DE			mov	EBX,ESI
 00000570			$L000825:
 00000570  8B CB			mov	ECX,EBX 
 00000572  E8 00000951			call	 UnitTesting_Circle
 00000577  83 C3 0C			add	EBX,00000000Ch
 0000057A  3B DF			cmp	EBX,EDI
 0000057C  75 F2			jnz	OFFSET $L000825
 0000057E  33 C0			xor	EAX,EAX
 00000580  6B C0 0C			imul	EAX,EAX,00000000Ch
 00000583  8D 8C 28			lea	ECX,dword ptr [EBP+EAX-008Ch]
	   FFFFFF74
 0000058A  8B 11			mov	EDX,dword ptr [ECX]
 0000058C  FF 52 0C			call	dword ptr [EDX+000Ch]
 0000058F  B8 00000002			mov	EAX,000000002h
 00000594  6B C0 0C			imul	EAX,EAX,00000000Ch
 00000597  8D 8C 28			lea	ECX,dword ptr [EBP+EAX-008Ch]
	   FFFFFF74
 0000059E  8B 11			mov	EDX,dword ptr [ECX]
 000005A0  FF 52 0C			call	dword ptr [EDX+000Ch]
 000005A3  33 C0			xor	EAX,EAX
 000005A5  89 85 FFFFFF70		mov	dword ptr [EBP-0090h],EAX
 000005AB  EB 0C			jmp	OFFSET $L000826
 000005AD			$L000827:
 000005AD  8B 85 FFFFFF70		mov	EAX,dword ptr [EBP-144]
 000005B3  FF 85 FFFFFF70		inc	dword ptr [EBP-144]
 000005B9			$L000826:
 000005B9  8B 85 FFFFFF70		mov	EAX,dword ptr [EBP-0090h]
 000005BF  50				push	EAX
 000005C0  B8 0000000A			mov	EAX,00000000Ah
 000005C5  5A				pop	EDX
 000005C6  3B D0			cmp	EDX,EAX
 000005C8  0F 9C C0			setl	AL
 000005CB  84 C0			test	AL,AL
 000005CD  74 17			jz	OFFSET $L000828
 000005CF  8B 85 FFFFFF70		mov	EAX,dword ptr [EBP-0090h]
 000005D5  6B C0 0C			imul	EAX,EAX,00000000Ch
 000005D8  8D 8C 28			lea	ECX,dword ptr [EBP+EAX-008Ch]
	   FFFFFF74
 000005DF  8B 11			mov	EDX,dword ptr [ECX]
 000005E1  FF 52 0C			call	dword ptr [EDX+000Ch]
 000005E4  EB C7			jmp	OFFSET $L000827 
 000005E6			$L000828:
 000005E6  B8 00000005			mov	EAX,000000005h
 000005EB  6B C0 0C			imul	EAX,00000000Ch
 000005EE  8D 58 04			lea	EBX,dword ptr [EAX+4]
 000005F1  53				push	EBX
 000005F2  8B D8			mov	EBX,EAX
 000005F4  E8 00000000 E		call	 System_Memory_New
 000005F9  85 C0			test	EAX,EAX
 000005FB  74 09			jz	 $L000829
 000005FD  8B F0			mov	ESI,EAX 
 000005FF  89 1E			mov	dword ptr [ESI],EBX 
 00000601  83 C6 04			add	ESI,000000004h
 00000604  EB 02			jmp	 $L000830
 00000606			$L000829:
 00000606  33 F6			xor	ESI,ESI
 00000608			$L000830:
 00000608  89 B5 FFFFFF6C		mov	dword ptr [EBP-0094h],ESI 
 0000060E  8B 4E FC			mov	ECX,dword ptr [ESI-0004h] 
 00000611  8D 3C 31			lea	EDI,dword ptr [ESI+ECX] 
 00000614  8B DE			mov	EBX,ESI 
 00000616			$L000831:
 00000616  8B CB			mov	ECX,EBX 
 00000618  E8 000008AB			call	 UnitTesting_Circle
 0000061D  83 C3 0C			add	EBX,00000000Ch 
 00000620  3B DF			cmp	EBX,EDI
 00000622  75 F2			jnz	OFFSET $L000831
 00000624  8B C6			mov	EAX,ESI 
 00000626  8B 85 FFFFFF6C		mov	EAX,dword ptr [EBP-148]
 0000062C  50				push	EAX
 0000062D  33 C0			xor	EAX,EAX
 0000062F  5E				pop	ESI
 00000630  6B C0 0C			imul	EAX,00000000Ch
 00000633  8D 0C 30			lea	ECX,dword ptr [ESI+EAX]
 00000636  8B 11			mov	EDX,dword ptr [ECX]
 00000638  FF 52 0C			call	dword ptr [EDX+000Ch]
 0000063B  8B 85 FFFFFF6C		mov	EAX,dword ptr [EBP-148]
 00000641  85 C0			test	EAX,EAX
 00000643  74 25			jz	OFFSET $L000832
 00000645  8B F0			mov	ESI,EAX
 00000647  8B 4E FC			mov	ECX,dword ptr [ESI-0004h]
 0000064A  8D 3C 31			lea	EDI,dword ptr [ESI+ECX]
 0000064D  8B DE			mov	EBX,ESI 
 0000064F			$L000833:
 0000064F  8B CB			mov	ECX,EBX 
 00000651  85 C9			test	ECX,ECX
 00000653  74 05			jz	OFFSET $L000834
 00000655  8B 01			mov	EAX,dword ptr [ECX]
 00000657  FF 50 10			call	dword ptr [EAX+0010h]
 0000065A			$L000834:
 0000065A  83 C3 0C			add	EBX,00000000Ch
 0000065D  3B DF			cmp	EBX,EDI
 0000065F  75 EE			jnz	OFFSET $L000833

 00000661  83 C6 FC			add	ESI,0FFFFFFFCh
 00000664  56				push	ESI
 00000665  E8 00000000 E		call	 System_Memory_Destroy
 0000066A			$L000832:
 0000066A			$L000744:
 0000066A  8D 85 FFFFFF74		lea	EAX,dword ptr [EBP-008Ch]
 00000670  8B F0			mov	ESI,EAX 
 00000672  8D 7E 78			lea	EDI,dword ptr [ESI+120]
 00000675  8B DE			mov	EBX,ESI
 00000677			$L000836:
 00000677  8B CB			mov	ECX,EBX 
 00000679  85 C9			test	ECX,ECX
 0000067B  74 05			jz	OFFSET $L000837
 0000067D  8B 01			mov	EAX,dword ptr [ECX]
 0000067F  FF 50 10			call	dword ptr [EAX+0010h]
 00000682			$L000837:
 00000682  83 C3 0C			add	EBX,00000000Ch
 00000685  3B DF			cmp	EBX,EDI
 00000687  75 EE			jnz	OFFSET $L000836

 00000689  8D 4D F4			lea	ECX,dword ptr [EBP-000Ch]
 0000068C  E8 0000001F			call	 LastFeatures_TestProperties_node_Destructor
 00000691			$L000838:

 00000691  5F				pop	EDI
 00000692  5E				pop	ESI 
 00000693  5B				pop	EBX 
 00000694  8B E5			mov	ESP,EBP
 00000696  5D				pop	EBP 
 00000697  C2 0004			retn	000000004h
 0000069A			LastFeatures_TestProperties_put_Shapes ENDP

 0000069A			LastFeatures_TestProperties PROC NEAR 
 0000069A  55				push	EBP
 0000069B  8B EC			mov	EBP,ESP
 0000069D  51				push	ECX 
 0000069E  53				push	EBX 
 0000069F  56				push	ESI 
 000006A0  57				push	EDI 
 000006A1  8B 4D FC			mov	ECX,dword ptr [EBP-0004h]
 000006A4  E8 000013B2			call	 __member_Init@LastFeatures_TestProperties

 000006A9  5F				pop	EDI
 000006AA  5E				pop	ESI 
 000006AB  5B				pop	EBX 
 000006AC  8B E5			mov	ESP,EBP
 000006AE  5D				pop	EBP 
 000006AF  C3				ret	
 000006B0			LastFeatures_TestProperties ENDP

 000006B0			LastFeatures_TestProperties_node_Destructor PROC NEAR 
 000006B0  55				push	EBP
 000006B1  8B EC			mov	EBP,ESP
 000006B3  51				push	ECX 
 000006B4  53				push	EBX 
 000006B5  56				push	ESI 
 000006B6  57				push	EDI 
 000006B7  8B 4D FC			mov	ECX,dword ptr [EBP-0004h]
 000006BA  8B 01			mov	EAX,dword ptr [ECX]
 000006BC  8B C8			mov	ECX,EAX 
 000006BE  51				push	ECX
 000006BF  33 C0			xor	EAX,EAX
 000006C1  5B				pop	EBX
 000006C2  3B D8			cmp	EBX,EAX
 000006C4  0F 95 C0			setnz	AL
 000006C7  84 C0			test	AL,AL
 000006C9  74 18			jz	OFFSET $L000840
 000006CB  8B 4D FC			mov	ECX,dword ptr [EBP-0004h]
 000006CE  8B 01			mov	EAX,dword ptr [ECX]
 000006D0  8B C8			mov	ECX,EAX 
 000006D2  8B F1			mov	ESI,ECX
 000006D4  85 C9			test	ECX,ECX
 000006D6  74 05			jz	OFFSET $L000843
 000006D8  E8 FFFFFFD3			call	 LastFeatures_TestProperties_node_Destructor
 000006DD			$L000843:
 000006DD  56				push	ESI
 000006DE  E8 00000000 E		call	 System_Memory_Destroy
 000006E3			$L000840:
 000006E3  8B 4D FC			mov	ECX,dword ptr [EBP-0004h]
 000006E6  8B 41 04			mov	EAX,dword ptr [ECX+0004h]
 000006E9  8B C8			mov	ECX,EAX 
 000006EB  51				push	ECX
 000006EC  33 C0			xor	EAX,EAX
 000006EE  5B				pop	EBX
 000006EF  3B D8			cmp	EBX,EAX
 000006F1  0F 95 C0			setnz	AL
 000006F4  84 C0			test	AL,AL
 000006F6  74 19			jz	OFFSET $L000844
 000006F8  8B 4D FC			mov	ECX,dword ptr [EBP-0004h]
 000006FB  8B 41 04			mov	EAX,dword ptr [ECX+0004h]
 000006FE  8B C8			mov	ECX,EAX 
 00000700  8B F1			mov	ESI,ECX
 00000702  85 C9			test	ECX,ECX
 00000704  74 05			jz	OFFSET $L000847
 00000706  E8 FFFFFFA5			call	 LastFeatures_TestProperties_node_Destructor
 0000070B			$L000847:
 0000070B  56				push	ESI
 0000070C  E8 00000000 E		call	 System_Memory_Destroy
 00000711			$L000844:
 00000711  8B 4D FC			mov	ECX,dword ptr [EBP-0004h]
 00000714  8B 41 08			mov	EAX,dword ptr [ECX+0008h]
 00000717  8B C8			mov	ECX,EAX 
 00000719  51				push	ECX
 0000071A  33 C0			xor	EAX,EAX
 0000071C  5B				pop	EBX
 0000071D  3B D8			cmp	EBX,EAX
 0000071F  0F 95 C0			setnz	AL
 00000722  84 C0			test	AL,AL
 00000724  74 18			jz	OFFSET $L000848
 00000726  8B 4D FC			mov	ECX,dword ptr [EBP-0004h]
 00000729  8B 41 08			mov	EAX,dword ptr [ECX+0008h]
 0000072C  8B C8			mov	ECX,EAX 
 0000072E  8B F1			mov	ESI,ECX
 00000730  85 C9			test	ECX,ECX
 00000732  74 04			jz	OFFSET $L000851
 00000734  8B 01			mov	EAX,dword ptr [ECX] 
 00000736  FF 10			call	dword ptr [EAX]
 00000738			$L000851:
 00000738  56				push	ESI
 00000739  E8 00000000 E		call	 System_Memory_Destroy
 0000073E			$L000848:
 0000073E			$L000735:

 0000073E  5F				pop	EDI
 0000073F  5E				pop	ESI 
 00000740  5B				pop	EBX 
 00000741  8B E5			mov	ESP,EBP
 00000743  5D				pop	EBP 
 00000744  C3				ret	
 00000745			LastFeatures_TestProperties_node_Destructor ENDP

 00000745			LastFeatures_TestProperties_node PROC NEAR 
 00000745  55				push	EBP
 00000746  8B EC			mov	EBP,ESP
 00000748  51				push	ECX 
 00000749  53				push	EBX 
 0000074A  56				push	ESI 
 0000074B  57				push	EDI 
 0000074C  8B 4D FC			mov	ECX,dword ptr [EBP-0004h]
 0000074F  E8 000013EF			call	 __member_Init@LastFeatures_TestProperties_node

 00000754  5F				pop	EDI
 00000755  5E				pop	ESI 
 00000756  5B				pop	EBX 
 00000757  8B E5			mov	ESP,EBP
 00000759  5D				pop	EBP 
 0000075A  C3				ret	
 0000075B			LastFeatures_TestProperties_node ENDP

 0000075B			Math_DegreesToRadians PROC NEAR 
 0000075B  55				push	EBP
 0000075C  8B EC			mov	EBP,ESP
 0000075E  51				push	ECX 
 0000075F  53				push	EBX 
 00000760  56				push	ESI 
 00000761  57				push	EDI 
 00000762  8B 55 08			mov	EDX,dword ptr [EBP+0008h]
 00000765  8B 45 0C			mov	EAX,dword ptr [EBP+000Ch] 
 00000768  50				push	EAX
 00000769  52				push	EDX 
 0000076A  E8 00000000 E		call	 Math_pi
 0000076F  9B DB E2			fclex
 00000772  50				push	EAX
 00000773  52				push	EDX 
 00000774  DD 04 24			fld	qword ptr [ESP]
 00000777  59				pop	ECX
 00000778  59				pop	ECX 
 00000779  DC 0C 24			fmul	qword ptr [ESP]
 0000077C  DD 1C 24			fstp	qword ptr [ESP]
 0000077F  B8 000000B4			mov	EAX,0000000B4h
 00000784  9B DB E2			fclex
 00000787  50				push	EAX
 00000788  E8 00000000 E		call	 FloatingPoint_FromInt
 0000078D  50				push	EAX
 0000078E  52				push	EDX 
 0000078F  DD 04 24			fld	qword ptr [ESP]
 00000792  59				pop	ECX
 00000793  59				pop	ECX 
 00000794  DC 3C 24			fdivr	qword ptr [ESP]
 00000797  DD 1C 24			fstp	qword ptr [ESP]
 0000079A  5A				pop	EDX
 0000079B  58				pop	EAX 
 0000079C  EB 00			jmp	OFFSET $L000464
 0000079E			$L000464:

 0000079E  5F				pop	EDI
 0000079F  5E				pop	ESI 
 000007A0  5B				pop	EBX 
 000007A1  8B E5			mov	ESP,EBP
 000007A3  5D				pop	EBP 
 000007A4  C2 0008			retn	000000008h
 000007A7			Math_DegreesToRadians ENDP

 000007A7			Math_Hyperbolic_HCos PROC NEAR 
 000007A7  55				push	EBP
 000007A8  8B EC			mov	EBP,ESP
 000007AA  51				push	ECX 
 000007AB  53				push	EBX 
 000007AC  56				push	ESI 
 000007AD  57				push	EDI 
 000007AE  8B 55 08			mov	EDX,dword ptr [EBP+0008h]
 000007B1  8B 45 0C			mov	EAX,dword ptr [EBP+000Ch] 
 000007B4  50				push	EAX
 000007B5  52				push	EDX 
 000007B6  E8 00000000 E		call	 Math_Exp
 000007BB  50				push	EAX
 000007BC  52				push	EDX 
 000007BD  8B 55 08			mov	EDX,dword ptr [EBP+0008h]
 000007C0  8B 45 0C			mov	EAX,dword ptr [EBP+000Ch] 
 000007C3  50				push	EAX
 000007C4  52				push	EDX 
 000007C5  DD 04 24			fld	qword ptr [ESP]
 000007C8  D9 E0			fchs
 000007CA  DD 1C 24			fstp	qword ptr [ESP]
 000007CD  E8 00000000 E		call	 Math_Exp
 000007D2  50				push	EAX
 000007D3  52				push	EDX 
 000007D4  DD 04 24			fld	qword ptr [ESP]
 000007D7  59				pop	ECX
 000007D8  59				pop	ECX 
 000007D9  DC 04 24			fadd	qword ptr [ESP]
 000007DC  DD 1C 24			fstp	qword ptr [ESP]
 000007DF  B8 00000002			mov	EAX,000000002h
 000007E4  9B DB E2			fclex
 000007E7  50				push	EAX
 000007E8  E8 00000000 E		call	 FloatingPoint_FromInt
 000007ED  50				push	EAX
 000007EE  52				push	EDX 
 000007EF  DD 04 24			fld	qword ptr [ESP]
 000007F2  59				pop	ECX
 000007F3  59				pop	ECX 
 000007F4  DC 3C 24			fdivr	qword ptr [ESP]
 000007F7  DD 1C 24			fstp	qword ptr [ESP]
 000007FA  5A				pop	EDX
 000007FB  58				pop	EAX 
 000007FC  EB 00			jmp	OFFSET $L000481
 000007FE			$L000481:

 000007FE  5F				pop	EDI
 000007FF  5E				pop	ESI 
 00000800  5B				pop	EBX 
 00000801  8B E5			mov	ESP,EBP
 00000803  5D				pop	EBP 
 00000804  C2 0008			retn	000000008h
 00000807			Math_Hyperbolic_HCos ENDP

 00000807			Math_Hyperbolic_HCosec PROC NEAR 
 00000807  55				push	EBP
 00000808  8B EC			mov	EBP,ESP
 0000080A  51				push	ECX 
 0000080B  53				push	EBX 
 0000080C  56				push	ESI 
 0000080D  57				push	EDI 
 0000080E  B8 00000002			mov	EAX,000000002h
 00000813  50				push	EAX
 00000814  8B 55 08			mov	EDX,dword ptr [EBP+0008h]
 00000817  8B 45 0C			mov	EAX,dword ptr [EBP+000Ch] 
 0000081A  50				push	EAX
 0000081B  52				push	EDX 
 0000081C  E8 00000000 E		call	 Math_Exp
 00000821  50				push	EAX
 00000822  52				push	EDX 
 00000823  8B 55 08			mov	EDX,dword ptr [EBP+0008h]
 00000826  8B 45 0C			mov	EAX,dword ptr [EBP+000Ch] 
 00000829  50				push	EAX
 0000082A  52				push	EDX 
 0000082B  DD 04 24			fld	qword ptr [ESP]
 0000082E  D9 E0			fchs
 00000830  DD 1C 24			fstp	qword ptr [ESP]
 00000833  E8 00000000 E		call	 Math_Exp
 00000838  50				push	EAX
 00000839  52				push	EDX 
 0000083A  DD 04 24			fld	qword ptr [ESP]
 0000083D  59				pop	ECX
 0000083E  59				pop	ECX 
 0000083F  DD 04 24			fld	qword ptr [ESP]
 00000842  D8 E1			fsub	st,st(1)
 00000844  DD 1C 24			fstp	qword ptr [ESP]
 00000847  9B DB E2			fclex
 0000084A  DD 04 24			fld	qword ptr [ESP]
 0000084D  59				pop	ECX
 0000084E  59				pop	ECX 
 0000084F  E8 00000000 E		call	 FloatingPoint_FromInt
 00000854  50				push	EAX
 00000855  52				push	EDX 
 00000856  DC 3C 24			fdivr	qword ptr [ESP]
 00000859  DD 1C 24			fstp	qword ptr [ESP]
 0000085C  5A				pop	EDX
 0000085D  58				pop	EAX 
 0000085E  EB 00			jmp	OFFSET $L000487
 00000860			$L000487:

 00000860  5F				pop	EDI
 00000861  5E				pop	ESI 
 00000862  5B				pop	EBX 
 00000863  8B E5			mov	ESP,EBP
 00000865  5D				pop	EBP 
 00000866  C2 0008			retn	000000008h
 00000869			Math_Hyperbolic_HCosec ENDP

 00000869			Math_Hyperbolic_HCotan PROC NEAR 
 00000869  55				push	EBP
 0000086A  8B EC			mov	EBP,ESP
 0000086C  51				push	ECX 
 0000086D  53				push	EBX 
 0000086E  56				push	ESI 
 0000086F  57				push	EDI 
 00000870  8B 55 08			mov	EDX,dword ptr [EBP+0008h]
 00000873  8B 45 0C			mov	EAX,dword ptr [EBP+000Ch] 
 00000876  50				push	EAX
 00000877  52				push	EDX 
 00000878  E8 00000000 E		call	 Math_Exp
 0000087D  50				push	EAX
 0000087E  52				push	EDX 
 0000087F  8B 55 08			mov	EDX,dword ptr [EBP+0008h]
 00000882  8B 45 0C			mov	EAX,dword ptr [EBP+000Ch] 
 00000885  50				push	EAX
 00000886  52				push	EDX 
 00000887  DD 04 24			fld	qword ptr [ESP]
 0000088A  D9 E0			fchs
 0000088C  DD 1C 24			fstp	qword ptr [ESP]
 0000088F  E8 00000000 E		call	 Math_Exp
 00000894  50				push	EAX
 00000895  52				push	EDX 
 00000896  DD 04 24			fld	qword ptr [ESP]
 00000899  59				pop	ECX
 0000089A  59				pop	ECX 
 0000089B  DC 04 24			fadd	qword ptr [ESP]
 0000089E  DD 1C 24			fstp	qword ptr [ESP]
 000008A1  8B 55 08			mov	EDX,dword ptr [EBP+0008h]
 000008A4  8B 45 0C			mov	EAX,dword ptr [EBP+000Ch] 
 000008A7  50				push	EAX
 000008A8  52				push	EDX 
 000008A9  E8 00000000 E		call	 Math_Exp
 000008AE  50				push	EAX
 000008AF  52				push	EDX 
 000008B0  8B 55 08			mov	EDX,dword ptr [EBP+0008h]
 000008B3  8B 45 0C			mov	EAX,dword ptr [EBP+000Ch] 
 000008B6  50				push	EAX
 000008B7  52				push	EDX 
 000008B8  DD 04 24			fld	qword ptr [ESP]
 000008BB  D9 E0			fchs
 000008BD  DD 1C 24			fstp	qword ptr [ESP]
 000008C0  E8 00000000 E		call	 Math_Exp
 000008C5  50				push	EAX
 000008C6  52				push	EDX 
 000008C7  DD 04 24			fld	qword ptr [ESP]
 000008CA  59				pop	ECX
 000008CB  59				pop	ECX 
 000008CC  DD 04 24			fld	qword ptr [ESP]
 000008CF  D8 E1			fsub	st,st(1)
 000008D1  DD 1C 24			fstp	qword ptr [ESP]
 000008D4  9B DB E2			fclex
 000008D7  DD 04 24			fld	qword ptr [ESP]
 000008DA  59				pop	ECX
 000008DB  59				pop	ECX 
 000008DC  DC 3C 24			fdivr	qword ptr [ESP]
 000008DF  DD 1C 24			fstp	qword ptr [ESP]
 000008E2  5A				pop	EDX
 000008E3  58				pop	EAX 
 000008E4  EB 00			jmp	OFFSET $L000489
 000008E6			$L000489:

 000008E6  5F				pop	EDI
 000008E7  5E				pop	ESI 
 000008E8  5B				pop	EBX 
 000008E9  8B E5			mov	ESP,EBP
 000008EB  5D				pop	EBP 
 000008EC  C2 0008			retn	000000008h
 000008EF			Math_Hyperbolic_HCotan ENDP

 000008EF			Math_Hyperbolic_HSec PROC NEAR 
 000008EF  55				push	EBP
 000008F0  8B EC			mov	EBP,ESP
 000008F2  51				push	ECX 
 000008F3  53				push	EBX 
 000008F4  56				push	ESI 
 000008F5  57				push	EDI 
 000008F6  B8 00000002			mov	EAX,000000002h
 000008FB  50				push	EAX
 000008FC  8B 55 08			mov	EDX,dword ptr [EBP+0008h]
 000008FF  8B 45 0C			mov	EAX,dword ptr [EBP+000Ch] 
 00000902  50				push	EAX
 00000903  52				push	EDX 
 00000904  E8 00000000 E		call	 Math_Exp
 00000909  50				push	EAX
 0000090A  52				push	EDX 
 0000090B  8B 55 08			mov	EDX,dword ptr [EBP+0008h]
 0000090E  8B 45 0C			mov	EAX,dword ptr [EBP+000Ch] 
 00000911  50				push	EAX
 00000912  52				push	EDX 
 00000913  DD 04 24			fld	qword ptr [ESP]
 00000916  D9 E0			fchs
 00000918  DD 1C 24			fstp	qword ptr [ESP]
 0000091B  E8 00000000 E		call	 Math_Exp
 00000920  50				push	EAX
 00000921  52				push	EDX 
 00000922  DD 04 24			fld	qword ptr [ESP]
 00000925  59				pop	ECX
 00000926  59				pop	ECX 
 00000927  DC 04 24			fadd	qword ptr [ESP]
 0000092A  DD 1C 24			fstp	qword ptr [ESP]
 0000092D  9B DB E2			fclex
 00000930  DD 04 24			fld	qword ptr [ESP]
 00000933  59				pop	ECX
 00000934  59				pop	ECX 
 00000935  E8 00000000 E		call	 FloatingPoint_FromInt
 0000093A  50				push	EAX
 0000093B  52				push	EDX 
 0000093C  DC 3C 24			fdivr	qword ptr [ESP]
 0000093F  DD 1C 24			fstp	qword ptr [ESP]
 00000942  5A				pop	EDX
 00000943  58				pop	EAX 
 00000944  EB 00			jmp	OFFSET $L000485
 00000946			$L000485:

 00000946  5F				pop	EDI
 00000947  5E				pop	ESI 
 00000948  5B				pop	EBX 
 00000949  8B E5			mov	ESP,EBP
 0000094B  5D				pop	EBP 
 0000094C  C2 0008			retn	000000008h
 0000094F			Math_Hyperbolic_HSec ENDP

 0000094F			Math_Hyperbolic_HSin PROC NEAR 
 0000094F  55				push	EBP
 00000950  8B EC			mov	EBP,ESP
 00000952  51				push	ECX 
 00000953  53				push	EBX 
 00000954  56				push	ESI 
 00000955  57				push	EDI 
 00000956  8B 55 08			mov	EDX,dword ptr [EBP+0008h]
 00000959  8B 45 0C			mov	EAX,dword ptr [EBP+000Ch] 
 0000095C  50				push	EAX
 0000095D  52				push	EDX 
 0000095E  E8 00000000 E		call	 Math_Exp
 00000963  50				push	EAX
 00000964  52				push	EDX 
 00000965  8B 55 08			mov	EDX,dword ptr [EBP+0008h]
 00000968  8B 45 0C			mov	EAX,dword ptr [EBP+000Ch] 
 0000096B  50				push	EAX
 0000096C  52				push	EDX 
 0000096D  DD 04 24			fld	qword ptr [ESP]
 00000970  D9 E0			fchs
 00000972  DD 1C 24			fstp	qword ptr [ESP]
 00000975  E8 00000000 E		call	 Math_Exp
 0000097A  50				push	EAX
 0000097B  52				push	EDX 
 0000097C  DD 04 24			fld	qword ptr [ESP]
 0000097F  59				pop	ECX
 00000980  59				pop	ECX 
 00000981  DD 04 24			fld	qword ptr [ESP]
 00000984  D8 E1			fsub	st,st(1)
 00000986  DD 1C 24			fstp	qword ptr [ESP]
 00000989  B8 00000002			mov	EAX,000000002h
 0000098E  9B DB E2			fclex
 00000991  50				push	EAX
 00000992  E8 00000000 E		call	 FloatingPoint_FromInt
 00000997  50				push	EAX
 00000998  52				push	EDX 
 00000999  DD 04 24			fld	qword ptr [ESP]
 0000099C  59				pop	ECX
 0000099D  59				pop	ECX 
 0000099E  DC 3C 24			fdivr	qword ptr [ESP]
 000009A1  DD 1C 24			fstp	qword ptr [ESP]
 000009A4  5A				pop	EDX
 000009A5  58				pop	EAX 
 000009A6  EB 00			jmp	OFFSET $L000478
 000009A8			$L000478:

 000009A8  5F				pop	EDI
 000009A9  5E				pop	ESI 
 000009AA  5B				pop	EBX 
 000009AB  8B E5			mov	ESP,EBP
 000009AD  5D				pop	EBP 
 000009AE  C2 0008			retn	000000008h
 000009B1			Math_Hyperbolic_HSin ENDP

 000009B1			Math_Hyperbolic_HTan PROC NEAR 
 000009B1  55				push	EBP
 000009B2  8B EC			mov	EBP,ESP
 000009B4  51				push	ECX 
 000009B5  53				push	EBX 
 000009B6  56				push	ESI 
 000009B7  57				push	EDI 
 000009B8  8B 55 08			mov	EDX,dword ptr [EBP+0008h]
 000009BB  8B 45 0C			mov	EAX,dword ptr [EBP+000Ch] 
 000009BE  50				push	EAX
 000009BF  52				push	EDX 
 000009C0  E8 00000000 E		call	 Math_Exp
 000009C5  50				push	EAX
 000009C6  52				push	EDX 
 000009C7  8B 55 08			mov	EDX,dword ptr [EBP+0008h]
 000009CA  8B 45 0C			mov	EAX,dword ptr [EBP+000Ch] 
 000009CD  50				push	EAX
 000009CE  52				push	EDX 
 000009CF  DD 04 24			fld	qword ptr [ESP]
 000009D2  D9 E0			fchs
 000009D4  DD 1C 24			fstp	qword ptr [ESP]
 000009D7  E8 00000000 E		call	 Math_Exp
 000009DC  50				push	EAX
 000009DD  52				push	EDX 
 000009DE  DD 04 24			fld	qword ptr [ESP]
 000009E1  59				pop	ECX
 000009E2  59				pop	ECX 
 000009E3  DD 04 24			fld	qword ptr [ESP]
 000009E6  D8 E1			fsub	st,st(1)
 000009E8  DD 1C 24			fstp	qword ptr [ESP]
 000009EB  8B 55 08			mov	EDX,dword ptr [EBP+0008h]
 000009EE  8B 45 0C			mov	EAX,dword ptr [EBP+000Ch] 
 000009F1  50				push	EAX
 000009F2  52				push	EDX 
 000009F3  E8 00000000 E		call	 Math_Exp
 000009F8  50				push	EAX
 000009F9  52				push	EDX 
 000009FA  8B 55 08			mov	EDX,dword ptr [EBP+0008h]
 000009FD  8B 45 0C			mov	EAX,dword ptr [EBP+000Ch] 
 00000A00  50				push	EAX
 00000A01  52				push	EDX 
 00000A02  DD 04 24			fld	qword ptr [ESP]
 00000A05  D9 E0			fchs
 00000A07  DD 1C 24			fstp	qword ptr [ESP]
 00000A0A  E8 00000000 E		call	 Math_Exp
 00000A0F  50				push	EAX
 00000A10  52				push	EDX 
 00000A11  DD 04 24			fld	qword ptr [ESP]
 00000A14  59				pop	ECX
 00000A15  59				pop	ECX 
 00000A16  DC 04 24			fadd	qword ptr [ESP]
 00000A19  DD 1C 24			fstp	qword ptr [ESP]
 00000A1C  9B DB E2			fclex
 00000A1F  DD 04 24			fld	qword ptr [ESP]
 00000A22  59				pop	ECX
 00000A23  59				pop	ECX 
 00000A24  DC 3C 24			fdivr	qword ptr [ESP]
 00000A27  DD 1C 24			fstp	qword ptr [ESP]
 00000A2A  5A				pop	EDX
 00000A2B  58				pop	EAX 
 00000A2C  EB 00			jmp	OFFSET $L000483
 00000A2E			$L000483:

 00000A2E  5F				pop	EDI
 00000A2F  5E				pop	ESI 
 00000A30  5B				pop	EBX 
 00000A31  8B E5			mov	ESP,EBP
 00000A33  5D				pop	EBP 
 00000A34  C2 0008			retn	000000008h
 00000A37			Math_Hyperbolic_HTan ENDP

 00000A37			Math_Hyperbolic_Inverse_HArccos PROC NEAR 
 00000A37  55				push	EBP
 00000A38  8B EC			mov	EBP,ESP
 00000A3A  51				push	ECX 
 00000A3B  53				push	EBX 
 00000A3C  56				push	ESI 
 00000A3D  57				push	EDI 
 00000A3E  8B 55 08			mov	EDX,dword ptr [EBP+0008h]
 00000A41  8B 45 0C			mov	EAX,dword ptr [EBP+000Ch] 
 00000A44  50				push	EAX
 00000A45  52				push	EDX 
 00000A46  8B 55 08			mov	EDX,dword ptr [EBP+0008h]
 00000A49  8B 45 0C			mov	EAX,dword ptr [EBP+000Ch] 
 00000A4C  50				push	EAX
 00000A4D  52				push	EDX 
 00000A4E  8B 55 08			mov	EDX,dword ptr [EBP+0008h]
 00000A51  8B 45 0C			mov	EAX,dword ptr [EBP+000Ch] 
 00000A54  9B DB E2			fclex
 00000A57  50				push	EAX
 00000A58  52				push	EDX 
 00000A59  DD 04 24			fld	qword ptr [ESP]
 00000A5C  59				pop	ECX
 00000A5D  59				pop	ECX 
 00000A5E  DC 0C 24			fmul	qword ptr [ESP]
 00000A61  DD 1C 24			fstp	qword ptr [ESP]
 00000A64  B8 00000001			mov	EAX,000000001h
 00000A69  50				push	EAX
 00000A6A  E8 00000000 E		call	 FloatingPoint_FromInt
 00000A6F  50				push	EAX
 00000A70  52				push	EDX 
 00000A71  DD 04 24			fld	qword ptr [ESP]
 00000A74  59				pop	ECX
 00000A75  59				pop	ECX 
 00000A76  DD 04 24			fld	qword ptr [ESP]
 00000A79  D8 E1			fsub	st,st(1)
 00000A7B  DD 1C 24			fstp	qword ptr [ESP]
 00000A7E  E8 00000000 E		call	 Math_Sqrt
 00000A83  50				push	EAX
 00000A84  52				push	EDX 
 00000A85  DD 04 24			fld	qword ptr [ESP]
 00000A88  59				pop	ECX
 00000A89  59				pop	ECX 
 00000A8A  DC 04 24			fadd	qword ptr [ESP]
 00000A8D  DD 1C 24			fstp	qword ptr [ESP]
 00000A90  E8 00000000 E		call	 Math_Ln
 00000A95  EB 00			jmp	OFFSET $L000495
 00000A97			$L000495:

 00000A97  5F				pop	EDI
 00000A98  5E				pop	ESI 
 00000A99  5B				pop	EBX 
 00000A9A  8B E5			mov	ESP,EBP
 00000A9C  5D				pop	EBP 
 00000A9D  C2 0008			retn	000000008h
 00000AA0			Math_Hyperbolic_Inverse_HArccos ENDP

 00000AA0			Math_Hyperbolic_Inverse_HArccosec PROC NEAR 
 00000AA0  55				push	EBP
 00000AA1  8B EC			mov	EBP,ESP
 00000AA3  51				push	ECX 
 00000AA4  53				push	EBX 
 00000AA5  56				push	ESI 
 00000AA6  57				push	EDI 
 00000AA7  8B 55 08			mov	EDX,dword ptr [EBP+0008h]
 00000AAA  8B 45 0C			mov	EAX,dword ptr [EBP+000Ch] 
 00000AAD  50				push	EAX
 00000AAE  52				push	EDX 
 00000AAF  E8 00000000 E		call	 Math_Sign
 00000AB4  50				push	EAX
 00000AB5  52				push	EDX 
 00000AB6  8B 55 08			mov	EDX,dword ptr [EBP+0008h]
 00000AB9  8B 45 0C			mov	EAX,dword ptr [EBP+000Ch] 
 00000ABC  50				push	EAX
 00000ABD  52				push	EDX 
 00000ABE  8B 55 08			mov	EDX,dword ptr [EBP+0008h]
 00000AC1  8B 45 0C			mov	EAX,dword ptr [EBP+000Ch] 
 00000AC4  9B DB E2			fclex
 00000AC7  50				push	EAX
 00000AC8  52				push	EDX 
 00000AC9  DD 04 24			fld	qword ptr [ESP]
 00000ACC  59				pop	ECX
 00000ACD  59				pop	ECX 
 00000ACE  DC 0C 24			fmul	qword ptr [ESP]
 00000AD1  DD 1C 24			fstp	qword ptr [ESP]
 00000AD4  B8 00000001			mov	EAX,000000001h
 00000AD9  50				push	EAX
 00000ADA  E8 00000000 E		call	 FloatingPoint_FromInt
 00000ADF  50				push	EAX
 00000AE0  52				push	EDX 
 00000AE1  DD 04 24			fld	qword ptr [ESP]
 00000AE4  59				pop	ECX
 00000AE5  59				pop	ECX 
 00000AE6  DC 04 24			fadd	qword ptr [ESP]
 00000AE9  DD 1C 24			fstp	qword ptr [ESP]
 00000AEC  E8 00000000 E		call	 Math_Sqrt
 00000AF1  9B DB E2			fclex
 00000AF4  50				push	EAX
 00000AF5  52				push	EDX 
 00000AF6  DD 04 24			fld	qword ptr [ESP]
 00000AF9  59				pop	ECX
 00000AFA  59				pop	ECX 
 00000AFB  DC 0C 24			fmul	qword ptr [ESP]
 00000AFE  DD 1C 24			fstp	qword ptr [ESP]
 00000B01  B8 00000001			mov	EAX,000000001h
 00000B06  50				push	EAX
 00000B07  E8 00000000 E		call	 FloatingPoint_FromInt
 00000B0C  50				push	EAX
 00000B0D  52				push	EDX 
 00000B0E  DD 04 24			fld	qword ptr [ESP]
 00000B11  59				pop	ECX
 00000B12  59				pop	ECX 
 00000B13  DC 04 24			fadd	qword ptr [ESP]
 00000B16  DD 1C 24			fstp	qword ptr [ESP]
 00000B19  8B 55 08			mov	EDX,dword ptr [EBP+0008h]
 00000B1C  8B 45 0C			mov	EAX,dword ptr [EBP+000Ch] 
 00000B1F  9B DB E2			fclex
 00000B22  50				push	EAX
 00000B23  52				push	EDX 
 00000B24  DD 04 24			fld	qword ptr [ESP]
 00000B27  59				pop	ECX
 00000B28  59				pop	ECX 
 00000B29  DC 3C 24			fdivr	qword ptr [ESP]
 00000B2C  DD 1C 24			fstp	qword ptr [ESP]
 00000B2F  E8 00000000 E		call	 Math_Ln
 00000B34  EB 00			jmp	OFFSET $L000501
 00000B36			$L000501:

 00000B36  5F				pop	EDI
 00000B37  5E				pop	ESI 
 00000B38  5B				pop	EBX 
 00000B39  8B E5			mov	ESP,EBP
 00000B3B  5D				pop	EBP 
 00000B3C  C2 0008			retn	000000008h
 00000B3F			Math_Hyperbolic_Inverse_HArccosec ENDP

 00000B3F			Math_Hyperbolic_Inverse_HArccotan PROC NEAR 
 00000B3F  55				push	EBP
 00000B40  8B EC			mov	EBP,ESP
 00000B42  51				push	ECX 
 00000B43  53				push	EBX 
 00000B44  56				push	ESI 
 00000B45  57				push	EDI 
 00000B46  8B 55 08			mov	EDX,dword ptr [EBP+0008h]
 00000B49  8B 45 0C			mov	EAX,dword ptr [EBP+000Ch] 
 00000B4C  50				push	EAX
 00000B4D  52				push	EDX 
 00000B4E  B8 00000001			mov	EAX,000000001h
 00000B53  50				push	EAX
 00000B54  E8 00000000 E		call	 FloatingPoint_FromInt
 00000B59  50				push	EAX
 00000B5A  52				push	EDX 
 00000B5B  DD 04 24			fld	qword ptr [ESP]
 00000B5E  59				pop	ECX
 00000B5F  59				pop	ECX 
 00000B60  DC 04 24			fadd	qword ptr [ESP]
 00000B63  DD 1C 24			fstp	qword ptr [ESP]
 00000B66  8B 55 08			mov	EDX,dword ptr [EBP+0008h]
 00000B69  8B 45 0C			mov	EAX,dword ptr [EBP+000Ch] 
 00000B6C  50				push	EAX
 00000B6D  52				push	EDX 
 00000B6E  B8 00000001			mov	EAX,000000001h
 00000B73  50				push	EAX
 00000B74  E8 00000000 E		call	 FloatingPoint_FromInt
 00000B79  50				push	EAX
 00000B7A  52				push	EDX 
 00000B7B  DD 04 24			fld	qword ptr [ESP]
 00000B7E  59				pop	ECX
 00000B7F  59				pop	ECX 
 00000B80  DD 04 24			fld	qword ptr [ESP]
 00000B83  D8 E1			fsub	st,st(1)
 00000B85  DD 1C 24			fstp	qword ptr [ESP]
 00000B88  9B DB E2			fclex
 00000B8B  DD 04 24			fld	qword ptr [ESP]
 00000B8E  59				pop	ECX
 00000B8F  59				pop	ECX 
 00000B90  DC 3C 24			fdivr	qword ptr [ESP]
 00000B93  DD 1C 24			fstp	qword ptr [ESP]
 00000B96  E8 00000000 E		call	 Math_Ln
 00000B9B  50				push	EAX
 00000B9C  52				push	EDX 
 00000B9D  B8 00000002			mov	EAX,000000002h
 00000BA2  9B DB E2			fclex
 00000BA5  50				push	EAX
 00000BA6  E8 00000000 E		call	 FloatingPoint_FromInt
 00000BAB  50				push	EAX
 00000BAC  52				push	EDX 
 00000BAD  DD 04 24			fld	qword ptr [ESP]
 00000BB0  59				pop	ECX
 00000BB1  59				pop	ECX 
 00000BB2  DC 3C 24			fdivr	qword ptr [ESP]
 00000BB5  DD 1C 24			fstp	qword ptr [ESP]
 00000BB8  5A				pop	EDX
 00000BB9  58				pop	EAX 
 00000BBA  EB 00			jmp	OFFSET $L000503
 00000BBC			$L000503:

 00000BBC  5F				pop	EDI
 00000BBD  5E				pop	ESI 
 00000BBE  5B				pop	EBX 
 00000BBF  8B E5			mov	ESP,EBP
 00000BC1  5D				pop	EBP 
 00000BC2  C2 0008			retn	000000008h
 00000BC5			Math_Hyperbolic_Inverse_HArccotan ENDP

 00000BC5			Math_Hyperbolic_Inverse_HArcsec PROC NEAR 
 00000BC5  55				push	EBP
 00000BC6  8B EC			mov	EBP,ESP
 00000BC8  51				push	ECX 
 00000BC9  53				push	EBX 
 00000BCA  56				push	ESI 
 00000BCB  57				push	EDI 
 00000BCC  8B 55 08			mov	EDX,dword ptr [EBP+0008h]
 00000BCF  8B 45 0C			mov	EAX,dword ptr [EBP+000Ch] 
 00000BD2  50				push	EAX
 00000BD3  52				push	EDX 
 00000BD4  8B 55 08			mov	EDX,dword ptr [EBP+0008h]
 00000BD7  8B 45 0C			mov	EAX,dword ptr [EBP+000Ch] 
 00000BDA  9B DB E2			fclex
 00000BDD  50				push	EAX
 00000BDE  52				push	EDX 
 00000BDF  DD 04 24			fld	qword ptr [ESP]
 00000BE2  59				pop	ECX
 00000BE3  59				pop	ECX 
 00000BE4  DC 0C 24			fmul	qword ptr [ESP]
 00000BE7  DD 1C 24			fstp	qword ptr [ESP]
 00000BEA  DD 04 24			fld	qword ptr [ESP]
 00000BED  D9 E0			fchs
 00000BEF  DD 1C 24			fstp	qword ptr [ESP]
 00000BF2  B8 00000001			mov	EAX,000000001h
 00000BF7  50				push	EAX
 00000BF8  E8 00000000 E		call	 FloatingPoint_FromInt
 00000BFD  50				push	EAX
 00000BFE  52				push	EDX 
 00000BFF  DD 04 24			fld	qword ptr [ESP]
 00000C02  59				pop	ECX
 00000C03  59				pop	ECX 
 00000C04  DC 04 24			fadd	qword ptr [ESP]
 00000C07  DD 1C 24			fstp	qword ptr [ESP]
 00000C0A  E8 00000000 E		call	 Math_Sqrt
 00000C0F  50				push	EAX
 00000C10  52				push	EDX 
 00000C11  B8 00000001			mov	EAX,000000001h
 00000C16  50				push	EAX
 00000C17  E8 00000000 E		call	 FloatingPoint_FromInt
 00000C1C  50				push	EAX
 00000C1D  52				push	EDX 
 00000C1E  DD 04 24			fld	qword ptr [ESP]
 00000C21  59				pop	ECX
 00000C22  59				pop	ECX 
 00000C23  DC 04 24			fadd	qword ptr [ESP]
 00000C26  DD 1C 24			fstp	qword ptr [ESP]
 00000C29  8B 55 08			mov	EDX,dword ptr [EBP+0008h]
 00000C2C  8B 45 0C			mov	EAX,dword ptr [EBP+000Ch] 
 00000C2F  9B DB E2			fclex
 00000C32  50				push	EAX
 00000C33  52				push	EDX 
 00000C34  DD 04 24			fld	qword ptr [ESP]
 00000C37  59				pop	ECX
 00000C38  59				pop	ECX 
 00000C39  DC 3C 24			fdivr	qword ptr [ESP]
 00000C3C  DD 1C 24			fstp	qword ptr [ESP]
 00000C3F  E8 00000000 E		call	 Math_Ln
 00000C44  EB 00			jmp	OFFSET $L000499
 00000C46			$L000499:

 00000C46  5F				pop	EDI
 00000C47  5E				pop	ESI 
 00000C48  5B				pop	EBX 
 00000C49  8B E5			mov	ESP,EBP
 00000C4B  5D				pop	EBP 
 00000C4C  C2 0008			retn	000000008h
 00000C4F			Math_Hyperbolic_Inverse_HArcsec ENDP

 00000C4F			Math_Hyperbolic_Inverse_HArcsin PROC NEAR 
 00000C4F  55				push	EBP
 00000C50  8B EC			mov	EBP,ESP
 00000C52  51				push	ECX 
 00000C53  53				push	EBX 
 00000C54  56				push	ESI 
 00000C55  57				push	EDI 
 00000C56  8B 55 08			mov	EDX,dword ptr [EBP+0008h]
 00000C59  8B 45 0C			mov	EAX,dword ptr [EBP+000Ch] 
 00000C5C  50				push	EAX
 00000C5D  52				push	EDX 
 00000C5E  8B 55 08			mov	EDX,dword ptr [EBP+0008h]
 00000C61  8B 45 0C			mov	EAX,dword ptr [EBP+000Ch] 
 00000C64  50				push	EAX
 00000C65  52				push	EDX 
 00000C66  8B 55 08			mov	EDX,dword ptr [EBP+0008h]
 00000C69  8B 45 0C			mov	EAX,dword ptr [EBP+000Ch] 
 00000C6C  9B DB E2			fclex
 00000C6F  50				push	EAX
 00000C70  52				push	EDX 
 00000C71  DD 04 24			fld	qword ptr [ESP]
 00000C74  59				pop	ECX
 00000C75  59				pop	ECX 
 00000C76  DC 0C 24			fmul	qword ptr [ESP]
 00000C79  DD 1C 24			fstp	qword ptr [ESP]
 00000C7C  B8 00000001			mov	EAX,000000001h
 00000C81  50				push	EAX
 00000C82  E8 00000000 E		call	 FloatingPoint_FromInt
 00000C87  50				push	EAX
 00000C88  52				push	EDX 
 00000C89  DD 04 24			fld	qword ptr [ESP]
 00000C8C  59				pop	ECX
 00000C8D  59				pop	ECX 
 00000C8E  DC 04 24			fadd	qword ptr [ESP]
 00000C91  DD 1C 24			fstp	qword ptr [ESP]
 00000C94  E8 00000000 E		call	 Math_Sqrt
 00000C99  50				push	EAX
 00000C9A  52				push	EDX 
 00000C9B  DD 04 24			fld	qword ptr [ESP]
 00000C9E  59				pop	ECX
 00000C9F  59				pop	ECX 
 00000CA0  DC 04 24			fadd	qword ptr [ESP]
 00000CA3  DD 1C 24			fstp	qword ptr [ESP]
 00000CA6  E8 00000000 E		call	 Math_Ln
 00000CAB  EB 00			jmp	OFFSET $L000492
 00000CAD			$L000492:

 00000CAD  5F				pop	EDI
 00000CAE  5E				pop	ESI 
 00000CAF  5B				pop	EBX 
 00000CB0  8B E5			mov	ESP,EBP
 00000CB2  5D				pop	EBP 
 00000CB3  C2 0008			retn	000000008h
 00000CB6			Math_Hyperbolic_Inverse_HArcsin ENDP

 00000CB6			Math_Hyperbolic_Inverse_HArctan PROC NEAR 
 00000CB6  55				push	EBP
 00000CB7  8B EC			mov	EBP,ESP
 00000CB9  51				push	ECX 
 00000CBA  53				push	EBX 
 00000CBB  56				push	ESI 
 00000CBC  57				push	EDI 
 00000CBD  B8 00000001			mov	EAX,000000001h
 00000CC2  50				push	EAX
 00000CC3  8B 55 08			mov	EDX,dword ptr [EBP+0008h]
 00000CC6  8B 45 0C			mov	EAX,dword ptr [EBP+000Ch] 
 00000CC9  50				push	EAX
 00000CCA  52				push	EDX 
 00000CCB  DD 04 24			fld	qword ptr [ESP]
 00000CCE  59				pop	ECX
 00000CCF  59				pop	ECX 
 00000CD0  E8 00000000 E		call	 FloatingPoint_FromInt
 00000CD5  50				push	EAX
 00000CD6  52				push	EDX 
 00000CD7  DC 04 24			fadd	qword ptr [ESP]
 00000CDA  DD 1C 24			fstp	qword ptr [ESP]
 00000CDD  B8 00000001			mov	EAX,000000001h
 00000CE2  50				push	EAX
 00000CE3  8B 55 08			mov	EDX,dword ptr [EBP+0008h]
 00000CE6  8B 45 0C			mov	EAX,dword ptr [EBP+000Ch] 
 00000CE9  50				push	EAX
 00000CEA  52				push	EDX 
 00000CEB  DD 04 24			fld	qword ptr [ESP]
 00000CEE  59				pop	ECX
 00000CEF  59				pop	ECX 
 00000CF0  E8 00000000 E		call	 FloatingPoint_FromInt
 00000CF5  50				push	EAX
 00000CF6  52				push	EDX 
 00000CF7  DD 04 24			fld	qword ptr [ESP]
 00000CFA  D8 E1			fsub	st,st(1)
 00000CFC  DD 1C 24			fstp	qword ptr [ESP]
 00000CFF  9B DB E2			fclex
 00000D02  DD 04 24			fld	qword ptr [ESP]
 00000D05  59				pop	ECX
 00000D06  59				pop	ECX 
 00000D07  DC 3C 24			fdivr	qword ptr [ESP]
 00000D0A  DD 1C 24			fstp	qword ptr [ESP]
 00000D0D  E8 00000000 E		call	 Math_Ln
 00000D12  50				push	EAX
 00000D13  52				push	EDX 
 00000D14  B8 00000002			mov	EAX,000000002h
 00000D19  9B DB E2			fclex
 00000D1C  50				push	EAX
 00000D1D  E8 00000000 E		call	 FloatingPoint_FromInt
 00000D22  50				push	EAX
 00000D23  52				push	EDX 
 00000D24  DD 04 24			fld	qword ptr [ESP]
 00000D27  59				pop	ECX
 00000D28  59				pop	ECX 
 00000D29  DC 3C 24			fdivr	qword ptr [ESP]
 00000D2C  DD 1C 24			fstp	qword ptr [ESP]
 00000D2F  5A				pop	EDX
 00000D30  58				pop	EAX 
 00000D31  EB 00			jmp	OFFSET $L000497
 00000D33			$L000497:

 00000D33  5F				pop	EDI
 00000D34  5E				pop	ESI 
 00000D35  5B				pop	EBX 
 00000D36  8B E5			mov	ESP,EBP
 00000D38  5D				pop	EBP 
 00000D39  C2 0008			retn	000000008h
 00000D3C			Math_Hyperbolic_Inverse_HArctan ENDP

 00000D3C			Math_RadiansToDegrees PROC NEAR 
 00000D3C  55				push	EBP
 00000D3D  8B EC			mov	EBP,ESP
 00000D3F  51				push	ECX 
 00000D40  53				push	EBX 
 00000D41  56				push	ESI 
 00000D42  57				push	EDI 
 00000D43  B8 000000B4			mov	EAX,0000000B4h
 00000D48  50				push	EAX
 00000D49  E8 00000000 E		call	 Math_pi
 00000D4E  9B DB E2			fclex
 00000D51  50				push	EAX
 00000D52  52				push	EDX 
 00000D53  DD 04 24			fld	qword ptr [ESP]
 00000D56  59				pop	ECX
 00000D57  59				pop	ECX 
 00000D58  E8 00000000 E		call	 FloatingPoint_FromInt
 00000D5D  50				push	EAX
 00000D5E  52				push	EDX 
 00000D5F  DC 3C 24			fdivr	qword ptr [ESP]
 00000D62  DD 1C 24			fstp	qword ptr [ESP]
 00000D65  8B 55 08			mov	EDX,dword ptr [EBP+0008h]
 00000D68  8B 45 0C			mov	EAX,dword ptr [EBP+000Ch] 
 00000D6B  9B DB E2			fclex
 00000D6E  50				push	EAX
 00000D6F  52				push	EDX 
 00000D70  DD 04 24			fld	qword ptr [ESP]
 00000D73  59				pop	ECX
 00000D74  59				pop	ECX 
 00000D75  DC 0C 24			fmul	qword ptr [ESP]
 00000D78  DD 1C 24			fstp	qword ptr [ESP]
 00000D7B  5A				pop	EDX
 00000D7C  58				pop	EAX 
 00000D7D  EB 00			jmp	OFFSET $L000461
 00000D7F			$L000461:

 00000D7F  5F				pop	EDI
 00000D80  5E				pop	ESI 
 00000D81  5B				pop	EBX 
 00000D82  8B E5			mov	ESP,EBP
 00000D84  5D				pop	EBP 
 00000D85  C2 0008			retn	000000008h
 00000D88			Math_RadiansToDegrees ENDP

 00000D88			UnitTesting_Circle_Circumference PROC NEAR 
 00000D88  55				push	EBP
 00000D89  8B EC			mov	EBP,ESP
 00000D8B  51				push	ECX 
 00000D8C  53				push	EBX 
 00000D8D  56				push	ESI 
 00000D8E  57				push	EDI 
 00000D8F  E8 00000000 E		call	 Math_pi
 00000D94  50				push	EAX
 00000D95  52				push	EDX 
 00000D96  8B 4D FC			mov	ECX,dword ptr [EBP-0004h]
 00000D99  E8 000000D7			call	 UnitTesting_Circle_get_Radius
 00000D9E  9B DB E2			fclex
 00000DA1  50				push	EAX
 00000DA2  52				push	EDX 
 00000DA3  DD 04 24			fld	qword ptr [ESP]
 00000DA6  59				pop	ECX
 00000DA7  59				pop	ECX 
 00000DA8  DC 0C 24			fmul	qword ptr [ESP]
 00000DAB  DD 1C 24			fstp	qword ptr [ESP]
 00000DAE  5A				pop	EDX
 00000DAF  58				pop	EAX 
 00000DB0  EB 00			jmp	OFFSET $L000612
 00000DB2			$L000612:

 00000DB2  5F				pop	EDI
 00000DB3  5E				pop	ESI 
 00000DB4  5B				pop	EBX 
 00000DB5  8B E5			mov	ESP,EBP
 00000DB7  5D				pop	EBP 
 00000DB8  C3				ret	
 00000DB9			UnitTesting_Circle_Circumference ENDP

 00000DB9			UnitTesting_Circle_ComputeArea PROC NEAR 
 00000DB9  55				push	EBP
 00000DBA  8B EC			mov	EBP,ESP
 00000DBC  51				push	ECX 
 00000DBD  53				push	EBX 
 00000DBE  56				push	ESI 
 00000DBF  57				push	EDI 
 00000DC0  B8 00000002			mov	EAX,000000002h
 00000DC5  50				push	EAX
 00000DC6  8B 4D FC			mov	ECX,dword ptr [EBP-0004h]
 00000DC9  E8 FFFFFFBA			call	 UnitTesting_Circle_Circumference
 00000DCE  9B DB E2			fclex
 00000DD1  50				push	EAX
 00000DD2  52				push	EDX 
 00000DD3  DD 04 24			fld	qword ptr [ESP]
 00000DD6  59				pop	ECX
 00000DD7  59				pop	ECX 
 00000DD8  E8 00000000 E		call	 FloatingPoint_FromInt
 00000DDD  50				push	EAX
 00000DDE  52				push	EDX 
 00000DDF  DC 0C 24			fmul	qword ptr [ESP]
 00000DE2  DD 1C 24			fstp	qword ptr [ESP]
 00000DE5  5A				pop	EDX
 00000DE6  58				pop	EAX 
 00000DE7  EB 00			jmp	OFFSET $L000618
 00000DE9			$L000618:

 00000DE9  5F				pop	EDI
 00000DEA  5E				pop	ESI 
 00000DEB  5B				pop	EBX 
 00000DEC  8B E5			mov	ESP,EBP
 00000DEE  5D				pop	EBP 
 00000DEF  C3				ret	
 00000DF0			UnitTesting_Circle_ComputeArea ENDP

 00000DF0			UnitTesting_Circle_Destructor PROC NEAR 
 00000DF0  55				push	EBP
 00000DF1  8B EC			mov	EBP,ESP
 00000DF3  51				push	ECX 
 00000DF4  53				push	EBX 
 00000DF5  56				push	ESI 
 00000DF6  57				push	EDI 
 00000DF7  8D 05 00000266 R		lea	EAX,OFFSET $S000620
 00000DFD  50				push	EAX
 00000DFE  E8 00000000 E		call	 System_Debug_OutputString
 00000E03  8D 05 00000266 R		lea	EAX,OFFSET $S000620
 00000E09  6A 00			push	000000000h
 00000E0B  50				push	EAX 
 00000E0C  E8 00000000 E		call	 Console_WriteString
 00000E11  E8 00000000 E		call	 Console_WriteCrLf 
 00000E16			$L000619:

 00000E16  5F				pop	EDI
 00000E17  5E				pop	ESI 
 00000E18  5B				pop	EBX 
 00000E19  8B E5			mov	ESP,EBP
 00000E1B  5D				pop	EBP 
 00000E1C  C3				ret	
 00000E1D			UnitTesting_Circle_Destructor ENDP

 00000E1D			UnitTesting_Circle_Draw PROC NEAR 
 00000E1D  55				push	EBP
 00000E1E  8B EC			mov	EBP,ESP
 00000E20  51				push	ECX 
 00000E21  53				push	EBX 
 00000E22  56				push	ESI 
 00000E23  57				push	EDI 
 00000E24  8D 05 000001C3 R		lea	EAX,OFFSET $S000617
 00000E2A  6A 00			push	000000000h
 00000E2C  50				push	EAX 
 00000E2D  E8 00000000 E		call	 Console_WriteString
 00000E32  E8 00000000 E		call	 Console_WriteCrLf 
 00000E37			$L000616:

 00000E37  5F				pop	EDI
 00000E38  5E				pop	ESI 
 00000E39  5B				pop	EBX 
 00000E3A  8B E5			mov	ESP,EBP
 00000E3C  5D				pop	EBP 
 00000E3D  C3				ret	
 00000E3E			UnitTesting_Circle_Draw ENDP

 00000E3E			UnitTesting_Circle_DrawSphere PROC NEAR 
 00000E3E  55				push	EBP
 00000E3F  8B EC			mov	EBP,ESP
 00000E41  51				push	ECX 
 00000E42  53				push	EBX 
 00000E43  56				push	ESI 
 00000E44  57				push	EDI 
 00000E45  8D 05 000001F8 R		lea	EAX,OFFSET $S000622
 00000E4B  6A 00			push	000000000h
 00000E4D  50				push	EAX 
 00000E4E  E8 00000000 E		call	 Console_WriteString
 00000E53  E8 00000000 E		call	 Console_WriteCrLf 
 00000E58			$L000621:

 00000E58  5F				pop	EDI
 00000E59  5E				pop	ESI 
 00000E5A  5B				pop	EBX 
 00000E5B  8B E5			mov	ESP,EBP
 00000E5D  5D				pop	EBP 
 00000E5E  C3				ret	
 00000E5F			UnitTesting_Circle_DrawSphere ENDP

 00000E5F			UnitTesting_Circle_Name PROC NEAR 
 00000E5F  55				push	EBP
 00000E60  8B EC			mov	EBP,ESP
 00000E62  51				push	ECX 
 00000E63  53				push	EBX 
 00000E64  56				push	ESI 
 00000E65  57				push	EDI 
 00000E66  8D 05 0000011B R		lea	EAX,OFFSET $S000615
 00000E6C  EB 00			jmp	OFFSET $L000614
 00000E6E			$L000614:

 00000E6E  5F				pop	EDI
 00000E6F  5E				pop	ESI 
 00000E70  5B				pop	EBX 
 00000E71  8B E5			mov	ESP,EBP
 00000E73  5D				pop	EBP 
 00000E74  C3				ret	
 00000E75			UnitTesting_Circle_Name ENDP

 00000E75			UnitTesting_Circle_get_Radius PROC NEAR 
 00000E75  55				push	EBP
 00000E76  8B EC			mov	EBP,ESP
 00000E78  51				push	ECX 
 00000E79  53				push	EBX 
 00000E7A  56				push	ESI 
 00000E7B  57				push	EDI 
 00000E7C  8B 4D FC			mov	ECX,dword ptr [EBP-0004h]
 00000E7F  8B 41 08			mov	EAX,dword ptr [ECX+0008h]
 00000E82  8B 51 04			mov	EDX,dword ptr [ECX+0004h] 
 00000E85  EB 00			jmp	OFFSET $L000609
 00000E87			$L000609:

 00000E87  5F				pop	EDI
 00000E88  5E				pop	ESI 
 00000E89  5B				pop	EBX 
 00000E8A  8B E5			mov	ESP,EBP
 00000E8C  5D				pop	EBP 
 00000E8D  C3				ret	
 00000E8E			UnitTesting_Circle_get_Radius ENDP

 00000E8E			UnitTesting_Circle_put_Radius PROC NEAR 
 00000E8E  55				push	EBP
 00000E8F  8B EC			mov	EBP,ESP
 00000E91  51				push	ECX 
 00000E92  53				push	EBX 
 00000E93  56				push	ESI 
 00000E94  57				push	EDI 
 00000E95  8B 55 08			mov	EDX,dword ptr [EBP+0008h]
 00000E98  8B 45 0C			mov	EAX,dword ptr [EBP+000Ch] 
 00000E9B  50				push	EAX
 00000E9C  52				push	EDX 
 00000E9D  DD C0			ffree	st
 00000E9F  DD 04 24			fld	qword ptr [ESP]
 00000EA2  8B 4D FC			mov	ECX,dword ptr [EBP-0004h]
 00000EA5  DD 59 04			fstp	qword ptr [ECX+0004h]
 00000EA8			$L000610:
 00000EA8  5A				pop	EDX
 00000EA9  58				pop	EAX 

 00000EAA  5F				pop	EDI
 00000EAB  5E				pop	ESI 
 00000EAC  5B				pop	EBX 
 00000EAD  8B E5			mov	ESP,EBP
 00000EAF  5D				pop	EBP 
 00000EB0  C2 0008			retn	000000008h
 00000EB3			UnitTesting_Circle_put_Radius ENDP

 00000EB3			UnitTesting_Circle_Type PROC NEAR 
 00000EB3  55				push	EBP
 00000EB4  8B EC			mov	EBP,ESP
 00000EB6  51				push	ECX 
 00000EB7  53				push	EBX 
 00000EB8  56				push	ESI 
 00000EB9  57				push	EDI 
 00000EBA  B8 00000001			mov	EAX,000000001h
 00000EBF  EB 00			jmp	OFFSET $L000613
 00000EC1			$L000613:

 00000EC1  5F				pop	EDI
 00000EC2  5E				pop	ESI 
 00000EC3  5B				pop	EBX 
 00000EC4  8B E5			mov	ESP,EBP
 00000EC6  5D				pop	EBP 
 00000EC7  C3				ret	
 00000EC8			UnitTesting_Circle_Type ENDP

 00000EC8			UnitTesting_Circle PROC NEAR 
 00000EC8  55				push	EBP
 00000EC9  8B EC			mov	EBP,ESP
 00000ECB  51				push	ECX 
 00000ECC  53				push	EBX 
 00000ECD  56				push	ESI 
 00000ECE  57				push	EDI 
 00000ECF  8B 4D FC			mov	ECX,dword ptr [EBP-0004h]
 00000ED2  E8 00000254			call	 UnitTesting_Shape ;base constructor call
 00000ED7  8B 4D FC			mov	ECX,dword ptr [EBP-0004h] 
 00000EDA  C7 01 00000028 R		mov	dword ptr [ECX],OFFSET  @@class_vptr_vtbl@@__UnitTesting_Circle 
 00000EE0  8B 4D FC			mov	ECX,dword ptr [EBP-0004h] 
 00000EE3  E8 00000C83			call	 __member_Init@UnitTesting_Circle 

 00000EE8  5F				pop	EDI
 00000EE9  5E				pop	ESI 
 00000EEA  5B				pop	EBX 
 00000EEB  8B E5			mov	ESP,EBP
 00000EED  5D				pop	EBP 
 00000EEE  C3				ret	
 00000EEF			UnitTesting_Circle ENDP

 00000EEF			UnitTesting_Rnd_NextDbl PROC NEAR 
 00000EEF  55				push	EBP
 00000EF0  8B EC			mov	EBP,ESP
 00000EF2  51				push	ECX 
 00000EF3  53				push	EBX 
 00000EF4  56				push	ESI 
 00000EF5  57				push	EDI 
 00000EF6  E8 00000056			call	 UnitTesting_Rnd_NextDblEx
 00000EFB  EB 00			jmp	OFFSET $L000535
 00000EFD			$L000535:

 00000EFD  5F				pop	EDI
 00000EFE  5E				pop	ESI 
 00000EFF  5B				pop	EBX 
 00000F00  8B E5			mov	ESP,EBP
 00000F02  5D				pop	EBP 
 00000F03  C3				ret	
 00000F04			UnitTesting_Rnd_NextDbl ENDP

 00000F04			UnitTesting_Rnd_NextInt PROC NEAR 
 00000F04  55				push	EBP
 00000F05  8B EC			mov	EBP,ESP
 00000F07  51				push	ECX 
 00000F08  53				push	EBX 
 00000F09  56				push	ESI 
 00000F0A  57				push	EDI 
 00000F0B  E8 0000013A			call	 UnitTesting_Rnd_NextIntEx
 00000F10  EB 00			jmp	OFFSET $L000536
 00000F12			$L000536:

 00000F12  5F				pop	EDI
 00000F13  5E				pop	ESI 
 00000F14  5B				pop	EBX 
 00000F15  8B E5			mov	ESP,EBP
 00000F17  5D				pop	EBP 
 00000F18  C3				ret	
 00000F19			UnitTesting_Rnd_NextInt ENDP

 00000F19			UnitTesting_Rnd PROC NEAR 
 00000F19  55				push	EBP
 00000F1A  8B EC			mov	EBP,ESP
 00000F1C  51				push	ECX 
 00000F1D  53				push	EBX 
 00000F1E  56				push	ESI 
 00000F1F  57				push	EDI 
 00000F20  8B 4D FC			mov	ECX,dword ptr [EBP-0004h]
 00000F23  E8 00000C5C			call	 __member_Init@UnitTesting_Rnd
 00000F28  8B 45 08			mov	EAX,dword ptr [EBP+0008h]
 00000F2B  A3 00000341 R		mov	 UnitTesting_Rnd_seed,EAX

 00000F30  5F				pop	EDI
 00000F31  5E				pop	ESI 
 00000F32  5B				pop	EBX 
 00000F33  8B E5			mov	ESP,EBP
 00000F35  5D				pop	EBP 
 00000F36  C2 0004			retn	000000004h
 00000F39			UnitTesting_Rnd ENDP

 00000F39			UnitTesting_Rnd_setSeed PROC NEAR 
 00000F39  55				push	EBP
 00000F3A  8B EC			mov	EBP,ESP
 00000F3C  51				push	ECX 
 00000F3D  53				push	EBX 
 00000F3E  56				push	ESI 
 00000F3F  57				push	EDI 
 00000F40  8B 45 08			mov	EAX,dword ptr [EBP+0008h]
 00000F43  A3 00000341 R		mov	 UnitTesting_Rnd_seed,EAX
 00000F48			$L000530:

 00000F48  5F				pop	EDI
 00000F49  5E				pop	ESI 
 00000F4A  5B				pop	EBX 
 00000F4B  8B E5			mov	ESP,EBP
 00000F4D  5D				pop	EBP 
 00000F4E  C2 0004			retn	000000004h
 00000F51			UnitTesting_Rnd_setSeed ENDP

 00000F51			UnitTesting_Rnd_NextDblEx PROC NEAR 
 00000F51  55				push	EBP
 00000F52  8B EC			mov	EBP,ESP
 00000F54  51				push	ECX 
 00000F55  53				push	EBX 
 00000F56  56				push	ESI 
 00000F57  57				push	EDI 
 00000F58  8D 1D 00000345 R		lea	EBX,OFFSET UnitTesting_Rnd_a
 00000F5E  8B 03			mov	EAX,dword ptr [EBX]
 00000F60  50				push	EAX
 00000F61  8D 1D 00000341 R		lea	EBX,OFFSET UnitTesting_Rnd_seed
 00000F67  8B 03			mov	EAX,dword ptr [EBX]
 00000F69  50				push	EAX
 00000F6A  8D 1D 0000034D R		lea	EBX,OFFSET UnitTesting_Rnd_q
 00000F70  8B 03			mov	EAX,dword ptr [EBX]
 00000F72  8B C8			mov	ECX,EAX
 00000F74  58				pop	EAX
 00000F75  33 D2			xor	EDX,EDX
 00000F77  F7 F9			idiv	ECX
 00000F79  8B C2			mov	EAX,EDX 
 00000F7B  59				pop	ECX
 00000F7C  99				cdq	
 00000F7D  0F AF C1			imul	EAX,ECX
 00000F80  52				push	EDX
 00000F81  50				push	EAX 
 00000F82  8D 1D 00000351 R		lea	EBX,OFFSET UnitTesting_Rnd_r
 00000F88  8B 03			mov	EAX,dword ptr [EBX]
 00000F8A  50				push	EAX
 00000F8B  8D 1D 00000341 R		lea	EBX,OFFSET UnitTesting_Rnd_seed
 00000F91  8B 03			mov	EAX,dword ptr [EBX]
 00000F93  50				push	EAX
 00000F94  8D 1D 0000034D R		lea	EBX,OFFSET UnitTesting_Rnd_q
 00000F9A  8B 03			mov	EAX,dword ptr [EBX]
 00000F9C  9B DB E2			fclex
 00000F9F  50				push	EAX
 00000FA0  E8 00000000 E		call	 FloatingPoint_FromInt
 00000FA5  50				push	EAX
 00000FA6  52				push	EDX 
 00000FA7  DD 04 24			fld	qword ptr [ESP]
 00000FAA  59				pop	ECX
 00000FAB  59				pop	ECX 
 00000FAC  E8 00000000 E		call	 FloatingPoint_FromInt
 00000FB1  50				push	EAX
 00000FB2  52				push	EDX 
 00000FB3  DC 3C 24			fdivr	qword ptr [ESP]
 00000FB6  DD 1C 24			fstp	qword ptr [ESP]
 00000FB9  9B DB E2			fclex
 00000FBC  DD 04 24			fld	qword ptr [ESP]
 00000FBF  59				pop	ECX
 00000FC0  59				pop	ECX 
 00000FC1  E8 00000000 E		call	 FloatingPoint_FromInt
 00000FC6  50				push	EAX
 00000FC7  52				push	EDX 
 00000FC8  DC 0C 24			fmul	qword ptr [ESP]
 00000FCB  DD 1C 24			fstp	qword ptr [ESP]
 00000FCE  DD 04 24			fld	qword ptr [ESP]
 00000FD1  59				pop	ECX
 00000FD2  59				pop	ECX 
 00000FD3  E8 00000000 E		call	 FloatingPoint_FromInt64
 00000FD8  50				push	EAX
 00000FD9  52				push	EDX 
 00000FDA  DD 04 24			fld	qword ptr [ESP]
 00000FDD  D8 E1			fsub	st,st(1)
 00000FDF  DF 3C 24			fistp	qword ptr [ESP]
 00000FE2  58				pop	EAX
 00000FE3  5A				pop	EDX 
 00000FE4  A3 00000341 R		mov	 UnitTesting_Rnd_seed,EAX
 00000FE9  8D 1D 00000341 R		lea	EBX,OFFSET UnitTesting_Rnd_seed
 00000FEF  8B 03			mov	EAX,dword ptr [EBX]
 00000FF1  50				push	EAX
 00000FF2  33 C0			xor	EAX,EAX
 00000FF4  5A				pop	EDX
 00000FF5  3B D0			cmp	EDX,EAX
 00000FF7  0F 9C C0			setl	AL
 00000FFA  84 C0			test	AL,AL
 00000FFC  74 0A			jz	 $L000852
 00000FFE  8D 1D 00000349 R		lea	EBX,OFFSET UnitTesting_Rnd_m
 00001004  8B 03			mov	EAX,dword ptr [EBX]
 00001006  EB 02			jmp	 $L000853
 00001008			$L000852:
 00001008  33 C0			xor	EAX,EAX
 0000100A			$L000853:
 0000100A  F8				clc	
 0000100B  01 05 00000341 R		add	 UnitTesting_Rnd_seed,EAX
 00001011  8D 1D 00000341 R		lea	EBX,OFFSET UnitTesting_Rnd_seed
 00001017  8B 03			mov	EAX,dword ptr [EBX]
 00001019  50				push	EAX
 0000101A  8D 1D 00000349 R		lea	EBX,OFFSET UnitTesting_Rnd_m
 00001020  8B 03			mov	EAX,dword ptr [EBX]
 00001022  9B DB E2			fclex
 00001025  50				push	EAX
 00001026  E8 00000000 E		call	 FloatingPoint_FromInt
 0000102B  50				push	EAX
 0000102C  52				push	EDX 
 0000102D  DD 04 24			fld	qword ptr [ESP]
 00001030  59				pop	ECX
 00001031  59				pop	ECX 
 00001032  E8 00000000 E		call	 FloatingPoint_FromInt
 00001037  50				push	EAX
 00001038  52				push	EDX 
 00001039  DC 3C 24			fdivr	qword ptr [ESP]
 0000103C  DD 1C 24			fstp	qword ptr [ESP]
 0000103F  5A				pop	EDX
 00001040  58				pop	EAX 
 00001041  EB 00			jmp	OFFSET $L000532
 00001043			$L000532:

 00001043  5F				pop	EDI
 00001044  5E				pop	ESI 
 00001045  5B				pop	EBX 
 00001046  8B E5			mov	ESP,EBP
 00001048  5D				pop	EBP 
 00001049  C3				ret	
 0000104A			UnitTesting_Rnd_NextDblEx ENDP

 0000104A			UnitTesting_Rnd_NextIntEx PROC NEAR 
 0000104A  55				push	EBP
 0000104B  8B EC			mov	EBP,ESP
 0000104D  51				push	ECX 
 0000104E  53				push	EBX 
 0000104F  56				push	ESI 
 00001050  57				push	EDI 
 00001051  8D 1D 00000345 R		lea	EBX,OFFSET UnitTesting_Rnd_a
 00001057  8B 03			mov	EAX,dword ptr [EBX]
 00001059  50				push	EAX
 0000105A  8D 1D 00000341 R		lea	EBX,OFFSET UnitTesting_Rnd_seed
 00001060  8B 03			mov	EAX,dword ptr [EBX]
 00001062  50				push	EAX
 00001063  8D 1D 0000034D R		lea	EBX,OFFSET UnitTesting_Rnd_q
 00001069  8B 03			mov	EAX,dword ptr [EBX]
 0000106B  8B C8			mov	ECX,EAX
 0000106D  58				pop	EAX
 0000106E  33 D2			xor	EDX,EDX
 00001070  F7 F9			idiv	ECX
 00001072  8B C2			mov	EAX,EDX 
 00001074  59				pop	ECX
 00001075  99				cdq	
 00001076  0F AF C1			imul	EAX,ECX
 00001079  52				push	EDX
 0000107A  50				push	EAX 
 0000107B  8D 1D 00000351 R		lea	EBX,OFFSET UnitTesting_Rnd_r
 00001081  8B 03			mov	EAX,dword ptr [EBX]
 00001083  50				push	EAX
 00001084  8D 1D 00000341 R		lea	EBX,OFFSET UnitTesting_Rnd_seed
 0000108A  8B 03			mov	EAX,dword ptr [EBX]
 0000108C  50				push	EAX
 0000108D  8D 1D 0000034D R		lea	EBX,OFFSET UnitTesting_Rnd_q
 00001093  8B 03			mov	EAX,dword ptr [EBX]
 00001095  59				pop	ECX
 00001096  99				cdq	
 00001097  0F AF C1			imul	EAX,ECX
 0000109A  9B DB E2			fclex
 0000109D  52				push	EDX
 0000109E  50				push	EAX 
 0000109F  E8 00000000 E		call	 FloatingPoint_FromInt64
 000010A4  50				push	EAX
 000010A5  52				push	EDX 
 000010A6  DD 04 24			fld	qword ptr [ESP]
 000010A9  59				pop	ECX
 000010AA  59				pop	ECX 
 000010AB  E8 00000000 E		call	 FloatingPoint_FromInt
 000010B0  50				push	EAX
 000010B1  52				push	EDX 
 000010B2  DC 0C 24			fmul	qword ptr [ESP]
 000010B5  DF 3C 24			fistp	qword ptr [ESP]
 000010B8  E8 00000000 E		call	 FloatingPoint_FromInt64
 000010BD  50				push	EAX
 000010BE  52				push	EDX 
 000010BF  DD 04 24			fld	qword ptr [ESP]
 000010C2  59				pop	ECX
 000010C3  59				pop	ECX 
 000010C4  E8 00000000 E		call	 FloatingPoint_FromInt64
 000010C9  50				push	EAX
 000010CA  52				push	EDX 
 000010CB  DD 04 24			fld	qword ptr [ESP]
 000010CE  D8 E1			fsub	st,st(1)
 000010D0  DF 3C 24			fistp	qword ptr [ESP]
 000010D3  58				pop	EAX
 000010D4  5A				pop	EDX 
 000010D5  A3 00000341 R		mov	 UnitTesting_Rnd_seed,EAX
 000010DA  8D 1D 00000341 R		lea	EBX,OFFSET UnitTesting_Rnd_seed
 000010E0  8B 03			mov	EAX,dword ptr [EBX]
 000010E2  50				push	EAX
 000010E3  33 C0			xor	EAX,EAX
 000010E5  5A				pop	EDX
 000010E6  3B D0			cmp	EDX,EAX
 000010E8  0F 9C C0			setl	AL
 000010EB  84 C0			test	AL,AL
 000010ED  74 0A			jz	 $L000854
 000010EF  8D 1D 00000349 R		lea	EBX,OFFSET UnitTesting_Rnd_m
 000010F5  8B 03			mov	EAX,dword ptr [EBX]
 000010F7  EB 02			jmp	 $L000855
 000010F9			$L000854:
 000010F9  33 C0			xor	EAX,EAX
 000010FB			$L000855:
 000010FB  F8				clc	
 000010FC  01 05 00000341 R		add	 UnitTesting_Rnd_seed,EAX
 00001102  8D 1D 00000341 R		lea	EBX,OFFSET UnitTesting_Rnd_seed
 00001108  8B 03			mov	EAX,dword ptr [EBX]
 0000110A  50				push	EAX
 0000110B  8D 1D 00000349 R		lea	EBX,OFFSET UnitTesting_Rnd_m
 00001111  8B 03			mov	EAX,dword ptr [EBX]
 00001113  8B C8			mov	ECX,EAX
 00001115  58				pop	EAX
 00001116  33 D2			xor	EDX,EDX
 00001118  F7 F9			idiv	ECX
 0000111A  8B C2			mov	EAX,EDX 
 0000111C  50				push	EAX
 0000111D  E8 00000000 E		call	 FloatingPoint_FromInt
 00001122  EB 00			jmp	OFFSET $L000534
 00001124			$L000534:

 00001124  5F				pop	EDI
 00001125  5E				pop	ESI 
 00001126  5B				pop	EBX 
 00001127  8B E5			mov	ESP,EBP
 00001129  5D				pop	EBP 
 0000112A  C3				ret	
 0000112B			UnitTesting_Rnd_NextIntEx ENDP

 0000112B			UnitTesting_Shape PROC NEAR 
 0000112B  55				push	EBP
 0000112C  8B EC			mov	EBP,ESP
 0000112E  51				push	ECX 
 0000112F  53				push	EBX 
 00001130  56				push	ESI 
 00001131  57				push	EDI 
 00001132  8B 4D FC			mov	ECX,dword ptr [EBP-0004h]
 00001135  C7 01 00000040 R		mov	dword ptr [ECX],OFFSET  @@class_vptr_vtbl@@__UnitTesting_Shape 

 0000113B  5F				pop	EDI
 0000113C  5E				pop	ESI 
 0000113D  5B				pop	EBX 
 0000113E  8B E5			mov	ESP,EBP
 00001140  5D				pop	EBP 
 00001141  C3				ret	
 00001142			UnitTesting_Shape ENDP

 00001142			UnitTesting_ShapeFactoryCreator_Destructor PROC NEAR 
 00001142  55				push	EBP
 00001143  8B EC			mov	EBP,ESP
 00001145  51				push	ECX 
 00001146  53				push	EBX 
 00001147  56				push	ESI 
 00001148  57				push	EDI 
 00001149  8B 4D FC			mov	ECX,dword ptr [EBP-0004h]
 0000114C  8B 01			mov	EAX,dword ptr [ECX]
 0000114E  8B C8			mov	ECX,EAX 
 00001150  51				push	ECX
 00001151  33 C0			xor	EAX,EAX
 00001153  5B				pop	EBX
 00001154  3B D8			cmp	EBX,EAX
 00001156  0F 95 C0			setnz	AL
 00001159  84 C0			test	AL,AL
 0000115B  74 18			jz	OFFSET $L000857
 0000115D  8B 4D FC			mov	ECX,dword ptr [EBP-0004h]
 00001160  8B 01			mov	EAX,dword ptr [ECX]
 00001162  8B C8			mov	ECX,EAX 
 00001164  8B F1			mov	ESI,ECX
 00001166  85 C9			test	ECX,ECX
 00001168  74 05			jz	OFFSET $L000860
 0000116A  8B 01			mov	EAX,dword ptr [ECX] 
 0000116C  FF 50 10			call	dword ptr [EAX+0010h]
 0000116F			$L000860:
 0000116F  56				push	ESI
 00001170  E8 00000000 E		call	 System_Memory_Destroy
 00001175			$L000857:
 00001175  33 C0			xor	EAX,EAX
 00001177  50				push	EAX
 00001178  8B 4D FC			mov	ECX,dword ptr [EBP-0004h]
 0000117B  8B 01			mov	EAX,dword ptr [ECX]
 0000117D  8B C8			mov	ECX,EAX 
 0000117F  59				pop	ECX
 00001180  3B C8			cmp	ECX,EAX
 00001182  0F 95 C0			setnz	AL
 00001185  84 C0			test	AL,AL
 00001187  74 18			jz	OFFSET $L000861
 00001189  8B 4D FC			mov	ECX,dword ptr [EBP-0004h]
 0000118C  8B 01			mov	EAX,dword ptr [ECX]
 0000118E  8B C8			mov	ECX,EAX 
 00001190  8B F1			mov	ESI,ECX
 00001192  85 C9			test	ECX,ECX
 00001194  74 05			jz	OFFSET $L000864
 00001196  8B 01			mov	EAX,dword ptr [ECX] 
 00001198  FF 50 10			call	dword ptr [EAX+0010h]
 0000119B			$L000864:
 0000119B  56				push	ESI
 0000119C  E8 00000000 E		call	 System_Memory_Destroy
 000011A1			$L000861:
 000011A1			$L000674:

 000011A1  5F				pop	EDI
 000011A2  5E				pop	ESI 
 000011A3  5B				pop	EBX 
 000011A4  8B E5			mov	ESP,EBP
 000011A6  5D				pop	EBP 
 000011A7  C3				ret	
 000011A8			UnitTesting_ShapeFactoryCreator_Destructor ENDP

 000011A8			UnitTesting_ShapeFactoryCreator PROC NEAR 
 000011A8  55				push	EBP
 000011A9  8B EC			mov	EBP,ESP
 000011AB  51				push	ECX 
 000011AC  53				push	EBX 
 000011AD  56				push	ESI 
 000011AE  57				push	EDI 
 000011AF  8B 4D FC			mov	ECX,dword ptr [EBP-0004h]
 000011B2  E8 00000A10			call	 __member_Init@UnitTesting_ShapeFactoryCreator

 000011B7  5F				pop	EDI
 000011B8  5E				pop	ESI 
 000011B9  5B				pop	EBX 
 000011BA  8B E5			mov	ESP,EBP
 000011BC  5D				pop	EBP 
 000011BD  C3				ret	
 000011BE			UnitTesting_ShapeFactoryCreator ENDP

 000011BE			UnitTesting_ShapeFactoryCreator_Create PROC NEAR 
 000011BE  55				push	EBP
 000011BF  8B EC			mov	EBP,ESP
 000011C1  83 EC 08			sub	ESP,000000008h
 000011C4  53				push	EBX 
 000011C5  56				push	ESI 
 000011C6  57				push	EDI 
 000011C7  6A 0C			push	00000000Ch
 000011C9  E8 00000000 E		call	 System_Memory_New
 000011CE  85 C0			test	EAX,EAX
 000011D0  74 04			jz	 $L000866
 000011D2  8B F0			mov	ESI,EAX
 000011D4  EB 02			jmp	 $L000867
 000011D6			$L000866:
 000011D6  33 F6			xor	ESI,ESI
 000011D8			$L000867:
 000011D8  89 75 FC			mov	dword ptr [EBP-0004h],ESI 
 000011DB  8B CE			mov	ECX,ESI
 000011DD  E8 FFFFFCE6			call	 UnitTesting_Circle
 000011E2  8B C6			mov	EAX,ESI 
 000011E4  8B 4D FC			mov	ECX,dword ptr [EBP-4]
 000011E7  8B F1			mov	ESI,ECX
 000011E9  85 C9			test	ECX,ECX
 000011EB  74 05			jz	OFFSET $L000869
 000011ED  8B 01			mov	EAX,dword ptr [ECX] 
 000011EF  FF 50 10			call	dword ptr [EAX+0010h]
 000011F2			$L000869:
 000011F2  56				push	ESI
 000011F3  E8 00000000 E		call	 System_Memory_Destroy
 000011F8  8B 45 08			mov	EAX,dword ptr [EBP+0008h]
 000011FB  50				push	EAX
 000011FC  8D 05 0000011B R		lea	EAX,OFFSET $S000615
 00001202  5F				pop	EDI
 00001203  8B F0			mov	ESI,EAX
 00001205  50				push	EAX
 00001206  E8 00000000 E		call	 StringHandling_StringLength
 0000120B  50				push	EAX 
 0000120C  56				push	ESI 
 0000120D  57				push	EDI 
 0000120E  E8 00000000 E		call	 StringHandling_StringCompare 
 00001213  83 F8 00			cmp	EAX,000000000h
 00001216  0F 94 C0			setz	AL
 00001219  84 C0			test	AL,AL
 0000121B  74 24			jz	OFFSET $L000870
 0000121D  6A 0C			push	00000000Ch
 0000121F  E8 00000000 E		call	 System_Memory_New
 00001224  85 C0			test	EAX,EAX
 00001226  74 04			jz	 $L000872
 00001228  8B F0			mov	ESI,EAX
 0000122A  EB 02			jmp	 $L000873
 0000122C			$L000872:
 0000122C  33 F6			xor	ESI,ESI
 0000122E			$L000873:
 0000122E  8B CE			mov	ECX,ESI
 00001230  E8 FFFFFC93			call	 UnitTesting_Circle
 00001235  8B C6			mov	EAX,ESI 
 00001237  E9 0000008D			jmp	OFFSET $L000671
 0000123C  E9 00000084			jmp	OFFSET $L000871

				; else {
 00001241			$L000870:
 00001241  8B 45 08			mov	EAX,dword ptr [EBP+0008h]
 00001244  50				push	EAX
 00001245  8D 05 00000252 R		lea	EAX,OFFSET $S000641
 0000124B  5F				pop	EDI
 0000124C  8B F0			mov	ESI,EAX
 0000124E  50				push	EAX
 0000124F  E8 00000000 E		call	 StringHandling_StringLength
 00001254  50				push	EAX 
 00001255  56				push	ESI 
 00001256  57				push	EDI 
 00001257  E8 00000000 E		call	 StringHandling_StringCompare 
 0000125C  83 F8 00			cmp	EAX,000000000h
 0000125F  0F 94 C0			setz	AL
 00001262  84 C0			test	AL,AL
 00001264  74 1E			jz	OFFSET $L000874
 00001266  6A 14			push	000000014h
 00001268  E8 00000000 E		call	 System_Memory_New
 0000126D  85 C0			test	EAX,EAX
 0000126F  74 04			jz	 $L000876
 00001271  8B F0			mov	ESI,EAX
 00001273  EB 02			jmp	 $L000877
 00001275			$L000876:
 00001275  33 F6			xor	ESI,ESI
 00001277			$L000877:
 00001277  8B CE			mov	ECX,ESI
 00001279  E8 00000160			call	 UnitTesting_Square
 0000127E  8B C6			mov	EAX,ESI 
 00001280  EB 47			jmp	OFFSET $L000671
 00001282  EB 41			jmp	OFFSET $L000875

				; else {
 00001284			$L000874:
 00001284  8B 45 08			mov	EAX,dword ptr [EBP+0008h]
 00001287  50				push	EAX
 00001288  8D 05 00000259 R		lea	EAX,OFFSET $S000661
 0000128E  5F				pop	EDI
 0000128F  8B F0			mov	ESI,EAX
 00001291  50				push	EAX
 00001292  E8 00000000 E		call	 StringHandling_StringLength
 00001297  50				push	EAX 
 00001298  56				push	ESI 
 00001299  57				push	EDI 
 0000129A  E8 00000000 E		call	 StringHandling_StringCompare 
 0000129F  83 F8 00			cmp	EAX,000000000h
 000012A2  0F 94 C0			setz	AL
 000012A5  84 C0			test	AL,AL
 000012A7  74 1C			jz	OFFSET $L000878
 000012A9  6A 14			push	000000014h
 000012AB  E8 00000000 E		call	 System_Memory_New
 000012B0  85 C0			test	EAX,EAX
 000012B2  74 04			jz	 $L000880
 000012B4  8B F0			mov	ESI,EAX
 000012B6  EB 02			jmp	 $L000881
 000012B8			$L000880:
 000012B8  33 F6			xor	ESI,ESI
 000012BA			$L000881:
 000012BA  8B CE			mov	ECX,ESI
 000012BC  E8 0000062A			call	 UnitTesting_Triangle
 000012C1  8B C6			mov	EAX,ESI 
 000012C3  EB 04			jmp	OFFSET $L000671
 000012C5			$L000878:
 000012C5			$L000875:

				; }
 000012C5			$L000871:

				; }
 000012C5  33 C0			xor	EAX,EAX
 000012C7  EB 00			jmp	OFFSET $L000671
 000012C9			$L000671:

 000012C9  5F				pop	EDI
 000012CA  5E				pop	ESI 
 000012CB  5B				pop	EBX 
 000012CC  8B E5			mov	ESP,EBP
 000012CE  5D				pop	EBP 
 000012CF  C2 0004			retn	000000004h
 000012D2			UnitTesting_ShapeFactoryCreator_Create ENDP

 000012D2			UnitTesting_Square_ComputeArea PROC NEAR 
 000012D2  55				push	EBP
 000012D3  8B EC			mov	EBP,ESP
 000012D5  51				push	ECX 
 000012D6  53				push	EBX 
 000012D7  56				push	ESI 
 000012D8  57				push	EDI 
 000012D9  8B 4D FC			mov	ECX,dword ptr [EBP-0004h]
 000012DC  E8 00000124			call	 UnitTesting_Square_get_Width
 000012E1  50				push	EAX
 000012E2  52				push	EDX 
 000012E3  8B 4D FC			mov	ECX,dword ptr [EBP-0004h]
 000012E6  E8 0000008A			call	 UnitTesting_Square_get_Height
 000012EB  9B DB E2			fclex
 000012EE  50				push	EAX
 000012EF  52				push	EDX 
 000012F0  DD 04 24			fld	qword ptr [ESP]
 000012F3  59				pop	ECX
 000012F4  59				pop	ECX 
 000012F5  DC 0C 24			fmul	qword ptr [ESP]
 000012F8  DD 1C 24			fstp	qword ptr [ESP]
 000012FB  5A				pop	EDX
 000012FC  58				pop	EAX 
 000012FD  EB 00			jmp	OFFSET $L000638
 000012FF			$L000638:

 000012FF  5F				pop	EDI
 00001300  5E				pop	ESI 
 00001301  5B				pop	EBX 
 00001302  8B E5			mov	ESP,EBP
 00001304  5D				pop	EBP 
 00001305  C3				ret	
 00001306			UnitTesting_Square_ComputeArea ENDP

 00001306			UnitTesting_Square_Destructor PROC NEAR 
 00001306  55				push	EBP
 00001307  8B EC			mov	EBP,ESP
 00001309  51				push	ECX 
 0000130A  53				push	EBX 
 0000130B  56				push	ESI 
 0000130C  57				push	EDI 
 0000130D  8D 05 00000284 R		lea	EAX,OFFSET $S000629
 00001313  50				push	EAX
 00001314  E8 00000000 E		call	 System_Debug_OutputString
 00001319  8D 05 00000284 R		lea	EAX,OFFSET $S000629
 0000131F  6A 00			push	000000000h
 00001321  50				push	EAX 
 00001322  E8 00000000 E		call	 Console_WriteString
 00001327  E8 00000000 E		call	 Console_WriteCrLf 
 0000132C			$L000628:

 0000132C  5F				pop	EDI
 0000132D  5E				pop	ESI 
 0000132E  5B				pop	EBX 
 0000132F  8B E5			mov	ESP,EBP
 00001331  5D				pop	EBP 
 00001332  C3				ret	
 00001333			UnitTesting_Square_Destructor ENDP

 00001333			UnitTesting_Square_Draw PROC NEAR 
 00001333  55				push	EBP
 00001334  8B EC			mov	EBP,ESP
 00001336  51				push	ECX 
 00001337  53				push	EBX 
 00001338  56				push	ESI 
 00001339  57				push	EDI 
 0000133A  8D 05 0000020A R		lea	EAX,OFFSET $S000643
 00001340  6A 00			push	000000000h
 00001342  50				push	EAX 
 00001343  E8 00000000 E		call	 Console_WriteString
 00001348  E8 00000000 E		call	 Console_WriteCrLf 
 0000134D			$L000642:

 0000134D  5F				pop	EDI
 0000134E  5E				pop	ESI 
 0000134F  5B				pop	EBX 
 00001350  8B E5			mov	ESP,EBP
 00001352  5D				pop	EBP 
 00001353  C3				ret	
 00001354			UnitTesting_Square_Draw ENDP

 00001354			UnitTesting_Square_DrawCube PROC NEAR 
 00001354  55				push	EBP
 00001355  8B EC			mov	EBP,ESP
 00001357  51				push	ECX 
 00001358  53				push	EBX 
 00001359  56				push	ESI 
 0000135A  57				push	EDI 
 0000135B  8D 05 000001D5 R		lea	EAX,OFFSET $S000645
 00001361  6A 00			push	000000000h
 00001363  50				push	EAX 
 00001364  E8 00000000 E		call	 Console_WriteString
 00001369  E8 00000000 E		call	 Console_WriteCrLf 
 0000136E			$L000644:

 0000136E  5F				pop	EDI
 0000136F  5E				pop	ESI 
 00001370  5B				pop	EBX 
 00001371  8B E5			mov	ESP,EBP
 00001373  5D				pop	EBP 
 00001374  C3				ret	
 00001375			UnitTesting_Square_DrawCube ENDP

 00001375			UnitTesting_Square_get_Height PROC NEAR 
 00001375  55				push	EBP
 00001376  8B EC			mov	EBP,ESP
 00001378  51				push	ECX 
 00001379  53				push	EBX 
 0000137A  56				push	ESI 
 0000137B  57				push	EDI 
 0000137C  8B 4D FC			mov	ECX,dword ptr [EBP-0004h]
 0000137F  8B 41 10			mov	EAX,dword ptr [ECX+0010h]
 00001382  8B 51 0C			mov	EDX,dword ptr [ECX+000Ch] 
 00001385  EB 00			jmp	OFFSET $L000635
 00001387			$L000635:

 00001387  5F				pop	EDI
 00001388  5E				pop	ESI 
 00001389  5B				pop	EBX 
 0000138A  8B E5			mov	ESP,EBP
 0000138C  5D				pop	EBP 
 0000138D  C3				ret	
 0000138E			UnitTesting_Square_get_Height ENDP

 0000138E			UnitTesting_Square_put_Height PROC NEAR 
 0000138E  55				push	EBP
 0000138F  8B EC			mov	EBP,ESP
 00001391  51				push	ECX 
 00001392  53				push	EBX 
 00001393  56				push	ESI 
 00001394  57				push	EDI 
 00001395  8B 55 08			mov	EDX,dword ptr [EBP+0008h]
 00001398  8B 45 0C			mov	EAX,dword ptr [EBP+000Ch] 
 0000139B  50				push	EAX
 0000139C  52				push	EDX 
 0000139D  DD C0			ffree	st
 0000139F  DD 04 24			fld	qword ptr [ESP]
 000013A2  8B 4D FC			mov	ECX,dword ptr [EBP-0004h]
 000013A5  DD 59 0C			fstp	qword ptr [ECX+000Ch]
 000013A8			$L000636:
 000013A8  5A				pop	EDX
 000013A9  58				pop	EAX 

 000013AA  5F				pop	EDI
 000013AB  5E				pop	ESI 
 000013AC  5B				pop	EBX 
 000013AD  8B E5			mov	ESP,EBP
 000013AF  5D				pop	EBP 
 000013B0  C2 0008			retn	000000008h
 000013B3			UnitTesting_Square_put_Height ENDP

 000013B3			UnitTesting_Square_Name PROC NEAR 
 000013B3  55				push	EBP
 000013B4  8B EC			mov	EBP,ESP
 000013B6  51				push	ECX 
 000013B7  53				push	EBX 
 000013B8  56				push	ESI 
 000013B9  57				push	EDI 
 000013BA  8D 05 00000252 R		lea	EAX,OFFSET $S000641
 000013C0  EB 00			jmp	OFFSET $L000640
 000013C2			$L000640:

 000013C2  5F				pop	EDI
 000013C3  5E				pop	ESI 
 000013C4  5B				pop	EBX 
 000013C5  8B E5			mov	ESP,EBP
 000013C7  5D				pop	EBP 
 000013C8  C3				ret	
 000013C9			UnitTesting_Square_Name ENDP

 000013C9			UnitTesting_Square_Type PROC NEAR 
 000013C9  55				push	EBP
 000013CA  8B EC			mov	EBP,ESP
 000013CC  51				push	ECX 
 000013CD  53				push	EBX 
 000013CE  56				push	ESI 
 000013CF  57				push	EDI 
 000013D0  B8 00000002			mov	EAX,000000002h
 000013D5  EB 00			jmp	OFFSET $L000639
 000013D7			$L000639:

 000013D7  5F				pop	EDI
 000013D8  5E				pop	ESI 
 000013D9  5B				pop	EBX 
 000013DA  8B E5			mov	ESP,EBP
 000013DC  5D				pop	EBP 
 000013DD  C3				ret	
 000013DE			UnitTesting_Square_Type ENDP

 000013DE			UnitTesting_Square PROC NEAR 
 000013DE  55				push	EBP
 000013DF  8B EC			mov	EBP,ESP
 000013E1  51				push	ECX 
 000013E2  53				push	EBX 
 000013E3  56				push	ESI 
 000013E4  57				push	EDI 
 000013E5  8B 4D FC			mov	ECX,dword ptr [EBP-0004h]
 000013E8  E8 FFFFFD3E			call	 UnitTesting_Shape ;base constructor call
 000013ED  8B 4D FC			mov	ECX,dword ptr [EBP-0004h] 
 000013F0  C7 01 00000054 R		mov	dword ptr [ECX],OFFSET  @@class_vptr_vtbl@@__UnitTesting_Square 
 000013F6  8B 4D FC			mov	ECX,dword ptr [EBP-0004h] 
 000013F9  E8 000007F9			call	 __member_Init@UnitTesting_Square 

 000013FE  5F				pop	EDI
 000013FF  5E				pop	ESI 
 00001400  5B				pop	EBX 
 00001401  8B E5			mov	ESP,EBP
 00001403  5D				pop	EBP 
 00001404  C3				ret	
 00001405			UnitTesting_Square ENDP

 00001405			UnitTesting_Square_get_Width PROC NEAR 
 00001405  55				push	EBP
 00001406  8B EC			mov	EBP,ESP
 00001408  51				push	ECX 
 00001409  53				push	EBX 
 0000140A  56				push	ESI 
 0000140B  57				push	EDI 
 0000140C  8B 4D FC			mov	ECX,dword ptr [EBP-0004h]
 0000140F  8B 41 08			mov	EAX,dword ptr [ECX+0008h]
 00001412  8B 51 04			mov	EDX,dword ptr [ECX+0004h] 
 00001415  EB 00			jmp	OFFSET $L000631
 00001417			$L000631:

 00001417  5F				pop	EDI
 00001418  5E				pop	ESI 
 00001419  5B				pop	EBX 
 0000141A  8B E5			mov	ESP,EBP
 0000141C  5D				pop	EBP 
 0000141D  C3				ret	
 0000141E			UnitTesting_Square_get_Width ENDP

 0000141E			UnitTesting_Square_put_Width PROC NEAR 
 0000141E  55				push	EBP
 0000141F  8B EC			mov	EBP,ESP
 00001421  51				push	ECX 
 00001422  53				push	EBX 
 00001423  56				push	ESI 
 00001424  57				push	EDI 
 00001425  8B 55 08			mov	EDX,dword ptr [EBP+0008h]
 00001428  8B 45 0C			mov	EAX,dword ptr [EBP+000Ch] 
 0000142B  50				push	EAX
 0000142C  52				push	EDX 
 0000142D  DD C0			ffree	st
 0000142F  DD 04 24			fld	qword ptr [ESP]
 00001432  8B 4D FC			mov	ECX,dword ptr [EBP-0004h]
 00001435  DD 59 04			fstp	qword ptr [ECX+0004h]
 00001438			$L000632:
 00001438  5A				pop	EDX
 00001439  58				pop	EAX 

 0000143A  5F				pop	EDI
 0000143B  5E				pop	ESI 
 0000143C  5B				pop	EBX 
 0000143D  8B E5			mov	ESP,EBP
 0000143F  5D				pop	EBP 
 00001440  C2 0008			retn	000000008h
 00001443			UnitTesting_Square_put_Width ENDP

 00001443			UnitTesting_TestSwitch_RunTest PROC NEAR 
 00001443  55				push	EBP
 00001444  8B EC			mov	EBP,ESP
 00001446  51				push	ECX 
 00001447  53				push	EBX 
 00001448  56				push	ESI 
 00001449  57				push	EDI 
 0000144A  8B 45 08			mov	EAX,dword ptr [EBP+0008h]
 0000144D  8B F0			mov	ESI,EAX
 0000144F  B8 00000001			mov	EAX,000000001h
 00001454  3B C6			cmp	EAX,ESI
 00001456  74 2F			jz	OFFSET $L000883
 00001458  B8 00000002			mov	EAX,000000002h
 0000145D  3B C6			cmp	EAX,ESI
 0000145F  74 3E			jz	OFFSET $L000884
 00001461  B8 00000003			mov	EAX,000000003h
 00001466  3B C6			cmp	EAX,ESI
 00001468  74 4A			jz	OFFSET $L000885
 0000146A  B8 00000004			mov	EAX,000000004h
 0000146F  3B C6			cmp	EAX,ESI
 00001471  74 56			jz	OFFSET $L000886
 00001473  B8 00000005			mov	EAX,000000005h
 00001478  3B C6			cmp	EAX,ESI
 0000147A  74 62			jz	OFFSET $L000887
 0000147C  B8 00000006			mov	EAX,000000006h
 00001481  3B C6			cmp	EAX,ESI 
 00001483  74 6C			jz	OFFSET $L000888 
 00001485  EB 7F			jmp	OFFSET $L000889
 00001487			$L000883:
 00001487  8D 05 00000242 R		lea	EAX,OFFSET $S000583
 0000148D  6A 00			push	000000000h
 0000148F  50				push	EAX 
 00001490  E8 00000000 E		call	 Console_WriteString
 00001495  E8 00000000 E		call	 Console_WriteCrLf 
 0000149A  E9 00000083			jmp	OFFSET $L000882
 0000149F			$L000884:
 0000149F  8D 05 00000122 R		lea	EAX,OFFSET $S000584
 000014A5  6A 00			push	000000000h
 000014A7  50				push	EAX 
 000014A8  E8 00000000 E		call	 Console_WriteString
 000014AD  E8 00000000 E		call	 Console_WriteCrLf 
 000014B2  EB 6E			jmp	OFFSET $L000882
 000014B4			$L000885:
 000014B4  8D 05 00000196 R		lea	EAX,OFFSET $S000585
 000014BA  6A 00			push	000000000h
 000014BC  50				push	EAX 
 000014BD  E8 00000000 E		call	 Console_WriteString
 000014C2  E8 00000000 E		call	 Console_WriteCrLf 
 000014C7  EB 59			jmp	OFFSET $L000882
 000014C9			$L000886:
 000014C9  8D 05 00000181 R		lea	EAX,OFFSET $S000586
 000014CF  6A 00			push	000000000h
 000014D1  50				push	EAX 
 000014D2  E8 00000000 E		call	 Console_WriteString
 000014D7  E8 00000000 E		call	 Console_WriteCrLf 
 000014DC  EB 44			jmp	OFFSET $L000882
 000014DE			$L000887:
 000014DE  8D 05 000001AA R		lea	EAX,OFFSET $S000588
 000014E4  6A 00			push	000000000h
 000014E6  50				push	EAX 
 000014E7  E8 00000000 E		call	 Console_WriteString
 000014EC  E8 00000000 E		call	 Console_WriteCrLf 
 000014F1			$L000888:
 000014F1  8D 05 0000016F R		lea	EAX,OFFSET $S000590
 000014F7  6A 00			push	000000000h
 000014F9  50				push	EAX 
 000014FA  E8 00000000 E		call	 Console_WriteString
 000014FF  E8 00000000 E		call	 Console_WriteCrLf 
 00001504  EB 1C			jmp	OFFSET $L000882
 00001506			$L000889:
 00001506  8D 05 00000230 R		lea	EAX,OFFSET $S000591
 0000150C  6A 00			push	000000000h
 0000150E  50				push	EAX 
 0000150F  E8 00000000 E		call	 Console_WriteString
 00001514  8B 45 08			mov	EAX,dword ptr [EBP+0008h]
 00001517  50				push	EAX 
 00001518  E8 00000000 E		call	 Console_WriteInteger 
 0000151D  E8 00000000 E		call	 Console_WriteCrLf 
 00001522			$L000882:
 00001522			$L000581:

 00001522  5F				pop	EDI
 00001523  5E				pop	ESI 
 00001524  5B				pop	EBX 
 00001525  8B E5			mov	ESP,EBP
 00001527  5D				pop	EBP 
 00001528  C2 0004			retn	000000004h
 0000152B			UnitTesting_TestSwitch_RunTest ENDP

 0000152B			UnitTesting_TestVirtuals_ExponentialRV_get_MU PROC NEAR 
 0000152B  55				push	EBP
 0000152C  8B EC			mov	EBP,ESP
 0000152E  51				push	ECX 
 0000152F  53				push	EBX 
 00001530  56				push	ESI 
 00001531  57				push	EDI 
 00001532  8B 4D FC			mov	ECX,dword ptr [EBP-0004h]
 00001535  8B 41 08			mov	EAX,dword ptr [ECX+0008h]
 00001538  8B 51 04			mov	EDX,dword ptr [ECX+0004h] 
 0000153B  EB 00			jmp	OFFSET $L000570
 0000153D			$L000570:

 0000153D  5F				pop	EDI
 0000153E  5E				pop	ESI 
 0000153F  5B				pop	EBX 
 00001540  8B E5			mov	ESP,EBP
 00001542  5D				pop	EBP 
 00001543  C3				ret	
 00001544			UnitTesting_TestVirtuals_ExponentialRV_get_MU ENDP

 00001544			UnitTesting_TestVirtuals_ExponentialRV_Name PROC NEAR 
 00001544  55				push	EBP
 00001545  8B EC			mov	EBP,ESP
 00001547  51				push	ECX 
 00001548  53				push	EBX 
 00001549  56				push	ESI 
 0000154A  57				push	EDI 
 0000154B  8D 05 000000E3 R		lea	EAX,OFFSET $S000575
 00001551  EB 00			jmp	OFFSET $L000574
 00001553			$L000574:

 00001553  5F				pop	EDI
 00001554  5E				pop	ESI 
 00001555  5B				pop	EBX 
 00001556  8B E5			mov	ESP,EBP
 00001558  5D				pop	EBP 
 00001559  C3				ret	
 0000155A			UnitTesting_TestVirtuals_ExponentialRV_Name ENDP

 0000155A			UnitTesting_TestVirtuals_ExponentialRV_Sample PROC NEAR 
 0000155A  55				push	EBP
 0000155B  8B EC			mov	EBP,ESP
 0000155D  51				push	ECX 
 0000155E  53				push	EBX 
 0000155F  56				push	ESI 
 00001560  57				push	EDI 
 00001561  8B 4D FC			mov	ECX,dword ptr [EBP-0004h]
 00001564  E8 FFFFFFC2			call	 UnitTesting_TestVirtuals_ExponentialRV_get_MU
 00001569  50				push	EAX
 0000156A  52				push	EDX 
 0000156B  E8 FFFFF9E1			call	 UnitTesting_Rnd_NextDblEx
 00001570  50				push	EAX
 00001571  52				push	EDX 
 00001572  E8 00000000 E		call	 Math_log10
 00001577  9B DB E2			fclex
 0000157A  50				push	EAX
 0000157B  52				push	EDX 
 0000157C  DD 04 24			fld	qword ptr [ESP]
 0000157F  59				pop	ECX
 00001580  59				pop	ECX 
 00001581  DC 0C 24			fmul	qword ptr [ESP]
 00001584  DD 1C 24			fstp	qword ptr [ESP]
 00001587  DD 04 24			fld	qword ptr [ESP]
 0000158A  D9 E0			fchs
 0000158C  DD 1C 24			fstp	qword ptr [ESP]
 0000158F  5A				pop	EDX
 00001590  58				pop	EAX 
 00001591  EB 00			jmp	OFFSET $L000573
 00001593			$L000573:

 00001593  5F				pop	EDI
 00001594  5E				pop	ESI 
 00001595  5B				pop	EBX 
 00001596  8B E5			mov	ESP,EBP
 00001598  5D				pop	EBP 
 00001599  C3				ret	
 0000159A			UnitTesting_TestVirtuals_ExponentialRV_Sample ENDP

 0000159A			UnitTesting_TestVirtuals_ExponentialRV PROC NEAR 
 0000159A  55				push	EBP
 0000159B  8B EC			mov	EBP,ESP
 0000159D  51				push	ECX 
 0000159E  53				push	EBX 
 0000159F  56				push	ESI 
 000015A0  57				push	EDI 
 000015A1  8B 4D FC			mov	ECX,dword ptr [EBP-0004h]
 000015A4  E8 0000003D			call	 UnitTesting_TestVirtuals_RandomVariable ;base constructor call
 000015A9  8B 4D FC			mov	ECX,dword ptr [EBP-0004h] 
 000015AC  C7 01 00000068 R		mov	dword ptr [ECX],OFFSET  @@class_vptr_vtbl@@__UnitTesting_TestVirtuals_ExponentialRV 
 000015B2  8B 55 08			mov	EDX,dword ptr [EBP+0008h]
 000015B5  8B 45 0C			mov	EAX,dword ptr [EBP+000Ch] 
 000015B8  50				push	EAX
 000015B9  52				push	EDX 
 000015BA  DD C0			ffree	st
 000015BC  DD 04 24			fld	qword ptr [ESP]
 000015BF  8B 4D FC			mov	ECX,dword ptr [EBP-0004h]
 000015C2  DD 59 04			fstp	qword ptr [ECX+0004h]
 000015C5  5A				pop	EDX
 000015C6  58				pop	EAX 

 000015C7  5F				pop	EDI
 000015C8  5E				pop	ESI 
 000015C9  5B				pop	EBX 
 000015CA  8B E5			mov	ESP,EBP
 000015CC  5D				pop	EBP 
 000015CD  C2 0008			retn	000000008h
 000015D0			UnitTesting_TestVirtuals_ExponentialRV ENDP

 000015D0			UnitTesting_TestVirtuals_RandomVariable_Name PROC NEAR 
 000015D0  55				push	EBP
 000015D1  8B EC			mov	EBP,ESP
 000015D3  51				push	ECX 
 000015D4  53				push	EBX 
 000015D5  56				push	ESI 
 000015D6  57				push	EDI 
 000015D7  8D 05 000000A0 R		lea	EAX,OFFSET $S000542
 000015DD  EB 00			jmp	OFFSET $L000541
 000015DF			$L000541:

 000015DF  5F				pop	EDI
 000015E0  5E				pop	ESI 
 000015E1  5B				pop	EBX 
 000015E2  8B E5			mov	ESP,EBP
 000015E4  5D				pop	EBP 
 000015E5  C3				ret	
 000015E6			UnitTesting_TestVirtuals_RandomVariable_Name ENDP

 000015E6			UnitTesting_TestVirtuals_RandomVariable PROC NEAR 
 000015E6  55				push	EBP
 000015E7  8B EC			mov	EBP,ESP
 000015E9  51				push	ECX 
 000015EA  53				push	EBX 
 000015EB  56				push	ESI 
 000015EC  57				push	EDI 
 000015ED  8B 4D FC			mov	ECX,dword ptr [EBP-0004h]
 000015F0  C7 01 00000070 R		mov	dword ptr [ECX],OFFSET  @@class_vptr_vtbl@@__UnitTesting_TestVirtuals_RandomVariable 

 000015F6  5F				pop	EDI
 000015F7  5E				pop	ESI 
 000015F8  5B				pop	EBX 
 000015F9  8B E5			mov	ESP,EBP
 000015FB  5D				pop	EBP 
 000015FC  C3				ret	
 000015FD			UnitTesting_TestVirtuals_RandomVariable ENDP

 000015FD			UnitTesting_TestVirtuals_SimpleRV_Name PROC NEAR 
 000015FD  55				push	EBP
 000015FE  8B EC			mov	EBP,ESP
 00001600  51				push	ECX 
 00001601  53				push	EBX 
 00001602  56				push	ESI 
 00001603  57				push	EDI 
 00001604  8D 05 000000D1 R		lea	EAX,OFFSET $S000547
 0000160A  EB 00			jmp	OFFSET $L000546
 0000160C			$L000546:

 0000160C  5F				pop	EDI
 0000160D  5E				pop	ESI 
 0000160E  5B				pop	EBX 
 0000160F  8B E5			mov	ESP,EBP
 00001611  5D				pop	EBP 
 00001612  C3				ret	
 00001613			UnitTesting_TestVirtuals_SimpleRV_Name ENDP

 00001613			UnitTesting_TestVirtuals_SimpleRV_Sample PROC NEAR 
 00001613  55				push	EBP
 00001614  8B EC			mov	EBP,ESP
 00001616  51				push	ECX 
 00001617  53				push	EBX 
 00001618  56				push	ESI 
 00001619  57				push	EDI 
 0000161A  E8 FFFFF932			call	 UnitTesting_Rnd_NextDblEx
 0000161F  EB 00			jmp	OFFSET $L000545
 00001621			$L000545:

 00001621  5F				pop	EDI
 00001622  5E				pop	ESI 
 00001623  5B				pop	EBX 
 00001624  8B E5			mov	ESP,EBP
 00001626  5D				pop	EBP 
 00001627  C3				ret	
 00001628			UnitTesting_TestVirtuals_SimpleRV_Sample ENDP

 00001628			UnitTesting_TestVirtuals_SimpleRV PROC NEAR 
 00001628  55				push	EBP
 00001629  8B EC			mov	EBP,ESP
 0000162B  51				push	ECX 
 0000162C  53				push	EBX 
 0000162D  56				push	ESI 
 0000162E  57				push	EDI 
 0000162F  8B 4D FC			mov	ECX,dword ptr [EBP-0004h]
 00001632  E8 FFFFFFAF			call	 UnitTesting_TestVirtuals_RandomVariable ;base constructor call
 00001637  8B 4D FC			mov	ECX,dword ptr [EBP-0004h] 
 0000163A  C7 01 00000078 R		mov	dword ptr [ECX],OFFSET  @@class_vptr_vtbl@@__UnitTesting_TestVirtuals_SimpleRV 

 00001640  5F				pop	EDI
 00001641  5E				pop	ESI 
 00001642  5B				pop	EBX 
 00001643  8B E5			mov	ESP,EBP
 00001645  5D				pop	EBP 
 00001646  C3				ret	
 00001647			UnitTesting_TestVirtuals_SimpleRV ENDP

 00001647			UnitTesting_TestVirtuals_UniformRV_Name PROC NEAR 
 00001647  55				push	EBP
 00001648  8B EC			mov	EBP,ESP
 0000164A  51				push	ECX 
 0000164B  53				push	EBX 
 0000164C  56				push	ESI 
 0000164D  57				push	EDI 
 0000164E  8D 05 000000FB R		lea	EAX,OFFSET $S000565
 00001654  EB 00			jmp	OFFSET $L000564
 00001656			$L000564:

 00001656  5F				pop	EDI
 00001657  5E				pop	ESI 
 00001658  5B				pop	EBX 
 00001659  8B E5			mov	ESP,EBP
 0000165B  5D				pop	EBP 
 0000165C  C3				ret	
 0000165D			UnitTesting_TestVirtuals_UniformRV_Name ENDP

 0000165D			UnitTesting_TestVirtuals_UniformRV_Sample PROC NEAR 
 0000165D  55				push	EBP
 0000165E  8B EC			mov	EBP,ESP
 00001660  51				push	ECX 
 00001661  53				push	EBX 
 00001662  56				push	ESI 
 00001663  57				push	EDI 
 00001664  8B 4D FC			mov	ECX,dword ptr [EBP-0004h]
 00001667  8B 41 08			mov	EAX,dword ptr [ECX+0008h]
 0000166A  8B 51 04			mov	EDX,dword ptr [ECX+0004h] 
 0000166D  50				push	EAX
 0000166E  52				push	EDX 
 0000166F  8B 4D FC			mov	ECX,dword ptr [EBP-0004h]
 00001672  8B 41 10			mov	EAX,dword ptr [ECX+0010h]
 00001675  8B 51 0C			mov	EDX,dword ptr [ECX+000Ch] 
 00001678  50				push	EAX
 00001679  52				push	EDX 
 0000167A  8B 4D FC			mov	ECX,dword ptr [EBP-0004h]
 0000167D  8B 41 08			mov	EAX,dword ptr [ECX+0008h]
 00001680  8B 51 04			mov	EDX,dword ptr [ECX+0004h] 
 00001683  50				push	EAX
 00001684  52				push	EDX 
 00001685  DD 04 24			fld	qword ptr [ESP]
 00001688  59				pop	ECX
 00001689  59				pop	ECX 
 0000168A  DD 04 24			fld	qword ptr [ESP]
 0000168D  D8 E1			fsub	st,st(1)
 0000168F  DD 1C 24			fstp	qword ptr [ESP]
 00001692  E8 FFFFF8BA			call	 UnitTesting_Rnd_NextDblEx
 00001697  9B DB E2			fclex
 0000169A  50				push	EAX
 0000169B  52				push	EDX 
 0000169C  DD 04 24			fld	qword ptr [ESP]
 0000169F  59				pop	ECX
 000016A0  59				pop	ECX 
 000016A1  DC 0C 24			fmul	qword ptr [ESP]
 000016A4  DD 1C 24			fstp	qword ptr [ESP]
 000016A7  DD 04 24			fld	qword ptr [ESP]
 000016AA  59				pop	ECX
 000016AB  59				pop	ECX 
 000016AC  DC 04 24			fadd	qword ptr [ESP]
 000016AF  DD 1C 24			fstp	qword ptr [ESP]
 000016B2  5A				pop	EDX
 000016B3  58				pop	EAX 
 000016B4  EB 00			jmp	OFFSET $L000563
 000016B6			$L000563:

 000016B6  5F				pop	EDI
 000016B7  5E				pop	ESI 
 000016B8  5B				pop	EBX 
 000016B9  8B E5			mov	ESP,EBP
 000016BB  5D				pop	EBP 
 000016BC  C3				ret	
 000016BD			UnitTesting_TestVirtuals_UniformRV_Sample ENDP

 000016BD			UnitTesting_TestVirtuals_UniformRV_get_U PROC NEAR 
 000016BD  55				push	EBP
 000016BE  8B EC			mov	EBP,ESP
 000016C0  51				push	ECX 
 000016C1  53				push	EBX 
 000016C2  56				push	ESI 
 000016C3  57				push	EDI 
 000016C4  8B 4D FC			mov	ECX,dword ptr [EBP-0004h]
 000016C7  8B 41 08			mov	EAX,dword ptr [ECX+0008h]
 000016CA  8B 51 04			mov	EDX,dword ptr [ECX+0004h] 
 000016CD  EB 00			jmp	OFFSET $L000553
 000016CF			$L000553:

 000016CF  5F				pop	EDI
 000016D0  5E				pop	ESI 
 000016D1  5B				pop	EBX 
 000016D2  8B E5			mov	ESP,EBP
 000016D4  5D				pop	EBP 
 000016D5  C3				ret	
 000016D6			UnitTesting_TestVirtuals_UniformRV_get_U ENDP

 000016D6			UnitTesting_TestVirtuals_UniformRV_put_U PROC NEAR 
 000016D6  55				push	EBP
 000016D7  8B EC			mov	EBP,ESP
 000016D9  51				push	ECX 
 000016DA  53				push	EBX 
 000016DB  56				push	ESI 
 000016DC  57				push	EDI 
 000016DD  8B 55 08			mov	EDX,dword ptr [EBP+0008h]
 000016E0  8B 45 0C			mov	EAX,dword ptr [EBP+000Ch] 
 000016E3  50				push	EAX
 000016E4  52				push	EDX 
 000016E5  DD C0			ffree	st
 000016E7  DD 04 24			fld	qword ptr [ESP]
 000016EA  8B 4D FC			mov	ECX,dword ptr [EBP-0004h]
 000016ED  DD 59 04			fstp	qword ptr [ECX+0004h]
 000016F0			$L000554:
 000016F0  5A				pop	EDX
 000016F1  58				pop	EAX 

 000016F2  5F				pop	EDI
 000016F3  5E				pop	ESI 
 000016F4  5B				pop	EBX 
 000016F5  8B E5			mov	ESP,EBP
 000016F7  5D				pop	EBP 
 000016F8  C2 0008			retn	000000008h
 000016FB			UnitTesting_TestVirtuals_UniformRV_put_U ENDP

 000016FB			UnitTesting_TestVirtuals_UniformRV PROC NEAR 
 000016FB  55				push	EBP
 000016FC  8B EC			mov	EBP,ESP
 000016FE  51				push	ECX 
 000016FF  53				push	EBX 
 00001700  56				push	ESI 
 00001701  57				push	EDI 
 00001702  8B 4D FC			mov	ECX,dword ptr [EBP-0004h]
 00001705  E8 FFFFFEDC			call	 UnitTesting_TestVirtuals_RandomVariable ;base constructor call
 0000170A  8B 4D FC			mov	ECX,dword ptr [EBP-0004h] 
 0000170D  C7 01 00000080 R		mov	dword ptr [ECX],OFFSET  @@class_vptr_vtbl@@__UnitTesting_TestVirtuals_UniformRV 
 00001713  8B 55 08			mov	EDX,dword ptr [EBP+0008h]
 00001716  8B 45 0C			mov	EAX,dword ptr [EBP+000Ch] 
 00001719  50				push	EAX
 0000171A  52				push	EDX 
 0000171B  DD C0			ffree	st
 0000171D  DD 04 24			fld	qword ptr [ESP]
 00001720  8B 4D FC			mov	ECX,dword ptr [EBP-0004h]
 00001723  E8 FFFFFFAE			call	 UnitTesting_TestVirtuals_UniformRV_put_U
 00001728  8B 55 10			mov	EDX,dword ptr [EBP+0010h]
 0000172B  8B 45 14			mov	EAX,dword ptr [EBP+0014h] 
 0000172E  50				push	EAX
 0000172F  52				push	EDX 
 00001730  DD C0			ffree	st
 00001732  DD 04 24			fld	qword ptr [ESP]
 00001735  8B 4D FC			mov	ECX,dword ptr [EBP-0004h]
 00001738  E8 00000022			call	 UnitTesting_TestVirtuals_UniformRV_put_V

 0000173D  5F				pop	EDI
 0000173E  5E				pop	ESI 
 0000173F  5B				pop	EBX 
 00001740  8B E5			mov	ESP,EBP
 00001742  5D				pop	EBP 
 00001743  C2 0010			retn	000000010h
 00001746			UnitTesting_TestVirtuals_UniformRV ENDP

 00001746			UnitTesting_TestVirtuals_UniformRV_get_V PROC NEAR 
 00001746  55				push	EBP
 00001747  8B EC			mov	EBP,ESP
 00001749  51				push	ECX 
 0000174A  53				push	EBX 
 0000174B  56				push	ESI 
 0000174C  57				push	EDI 
 0000174D  8B 4D FC			mov	ECX,dword ptr [EBP-0004h]
 00001750  8B 41 10			mov	EAX,dword ptr [ECX+0010h]
 00001753  8B 51 0C			mov	EDX,dword ptr [ECX+000Ch] 
 00001756  EB 00			jmp	OFFSET $L000557
 00001758			$L000557:

 00001758  5F				pop	EDI
 00001759  5E				pop	ESI 
 0000175A  5B				pop	EBX 
 0000175B  8B E5			mov	ESP,EBP
 0000175D  5D				pop	EBP 
 0000175E  C3				ret	
 0000175F			UnitTesting_TestVirtuals_UniformRV_get_V ENDP

 0000175F			UnitTesting_TestVirtuals_UniformRV_put_V PROC NEAR 
 0000175F  55				push	EBP
 00001760  8B EC			mov	EBP,ESP
 00001762  51				push	ECX 
 00001763  53				push	EBX 
 00001764  56				push	ESI 
 00001765  57				push	EDI 
 00001766  8B 55 08			mov	EDX,dword ptr [EBP+0008h]
 00001769  8B 45 0C			mov	EAX,dword ptr [EBP+000Ch] 
 0000176C  50				push	EAX
 0000176D  52				push	EDX 
 0000176E  DD C0			ffree	st
 00001770  DD 04 24			fld	qword ptr [ESP]
 00001773  8B 4D FC			mov	ECX,dword ptr [EBP-0004h]
 00001776  DD 59 0C			fstp	qword ptr [ECX+000Ch]
 00001779			$L000558:
 00001779  5A				pop	EDX
 0000177A  58				pop	EAX 

 0000177B  5F				pop	EDI
 0000177C  5E				pop	ESI 
 0000177D  5B				pop	EBX 
 0000177E  8B E5			mov	ESP,EBP
 00001780  5D				pop	EBP 
 00001781  C2 0008			retn	000000008h
 00001784			UnitTesting_TestVirtuals_UniformRV_put_V ENDP

 00001784			UnitTesting_Triangle_get_Base PROC NEAR 
 00001784  55				push	EBP
 00001785  8B EC			mov	EBP,ESP
 00001787  51				push	ECX 
 00001788  53				push	EBX 
 00001789  56				push	ESI 
 0000178A  57				push	EDI 
 0000178B  8B 4D FC			mov	ECX,dword ptr [EBP-0004h]
 0000178E  8B 41 08			mov	EAX,dword ptr [ECX+0008h]
 00001791  8B 51 04			mov	EDX,dword ptr [ECX+0004h] 
 00001794  EB 00			jmp	OFFSET $L000652
 00001796			$L000652:

 00001796  5F				pop	EDI
 00001797  5E				pop	ESI 
 00001798  5B				pop	EBX 
 00001799  8B E5			mov	ESP,EBP
 0000179B  5D				pop	EBP 
 0000179C  C3				ret	
 0000179D			UnitTesting_Triangle_get_Base ENDP

 0000179D			UnitTesting_Triangle_put_Base PROC NEAR 
 0000179D  55				push	EBP
 0000179E  8B EC			mov	EBP,ESP
 000017A0  51				push	ECX 
 000017A1  53				push	EBX 
 000017A2  56				push	ESI 
 000017A3  57				push	EDI 
 000017A4  8B 55 08			mov	EDX,dword ptr [EBP+0008h]
 000017A7  8B 45 0C			mov	EAX,dword ptr [EBP+000Ch] 
 000017AA  50				push	EAX
 000017AB  52				push	EDX 
 000017AC  DD C0			ffree	st
 000017AE  DD 04 24			fld	qword ptr [ESP]
 000017B1  8B 4D FC			mov	ECX,dword ptr [EBP-0004h]
 000017B4  DD 59 04			fstp	qword ptr [ECX+0004h]
 000017B7			$L000653:
 000017B7  5A				pop	EDX
 000017B8  58				pop	EAX 

 000017B9  5F				pop	EDI
 000017BA  5E				pop	ESI 
 000017BB  5B				pop	EBX 
 000017BC  8B E5			mov	ESP,EBP
 000017BE  5D				pop	EBP 
 000017BF  C2 0008			retn	000000008h
 000017C2			UnitTesting_Triangle_put_Base ENDP

 000017C2			UnitTesting_Triangle_ComputeArea PROC NEAR 
 000017C2  55				push	EBP
 000017C3  8B EC			mov	EBP,ESP
 000017C5  51				push	ECX 
 000017C6  53				push	EBX 
 000017C7  56				push	ESI 
 000017C8  57				push	EDI 
 000017C9  8B 4D FC			mov	ECX,dword ptr [EBP-0004h]
 000017CC  E8 FFFFFFB3			call	 UnitTesting_Triangle_get_Base
 000017D1  50				push	EAX
 000017D2  52				push	EDX 
 000017D3  8B 4D FC			mov	ECX,dword ptr [EBP-0004h]
 000017D6  E8 000000A7			call	 UnitTesting_Triangle_get_High
 000017DB  9B DB E2			fclex
 000017DE  50				push	EAX
 000017DF  52				push	EDX 
 000017E0  DD 04 24			fld	qword ptr [ESP]
 000017E3  59				pop	ECX
 000017E4  59				pop	ECX 
 000017E5  DC 0C 24			fmul	qword ptr [ESP]
 000017E8  DD 1C 24			fstp	qword ptr [ESP]
 000017EB  B8 00000002			mov	EAX,000000002h
 000017F0  9B DB E2			fclex
 000017F3  50				push	EAX
 000017F4  E8 00000000 E		call	 FloatingPoint_FromInt
 000017F9  50				push	EAX
 000017FA  52				push	EDX 
 000017FB  DD 04 24			fld	qword ptr [ESP]
 000017FE  59				pop	ECX 
 000017FF  59				pop	ECX 
 00001800  DC 3C 24			fdivr	qword ptr [ESP]
 00001803  DD 1C 24			fstp	qword ptr [ESP]
 00001806  5A				pop	EDX
 00001807  58				pop	EAX 
 00001808  EB 00			jmp	OFFSET $L000664
 0000180A			$L000664:

 0000180A  5F				pop	EDI
 0000180B  5E				pop	ESI 
 0000180C  5B				pop	EBX 
 0000180D  8B E5			mov	ESP,EBP
 0000180F  5D				pop	EBP 
 00001810  C3				ret	
 00001811			UnitTesting_Triangle_ComputeArea ENDP

 00001811			UnitTesting_Triangle_Destructor PROC NEAR 
 00001811  55				push	EBP
 00001812  8B EC			mov	EBP,ESP
 00001814  51				push	ECX 
 00001815  53				push	EBX 
 00001816  56				push	ESI 
 00001817  57				push	EDI 
 00001818  8D 05 000002A2 R		lea	EAX,OFFSET $S000666
 0000181E  50				push	EAX
 0000181F  E8 00000000 E		call	 System_Debug_OutputString
 00001824  8D 05 000002A2 R		lea	EAX,OFFSET $S000666
 0000182A  6A 00			push	000000000h
 0000182C  50				push	EAX 
 0000182D  E8 00000000 E		call	 Console_WriteString
 00001832  E8 00000000 E		call	 Console_WriteCrLf 
 00001837  EB 00			jmp	OFFSET $L000665
 00001839			$L000665:

 00001839  5F				pop	EDI
 0000183A  5E				pop	ESI 
 0000183B  5B				pop	EBX 
 0000183C  8B E5			mov	ESP,EBP
 0000183E  5D				pop	EBP 
 0000183F  C3				ret	
 00001840			UnitTesting_Triangle_Destructor ENDP

 00001840			UnitTesting_Triangle_Draw PROC NEAR 
 00001840  55				push	EBP
 00001841  8B EC			mov	EBP,ESP
 00001843  51				push	ECX 
 00001844  53				push	EBX 
 00001845  56				push	ESI 
 00001846  57				push	EDI 
 00001847  8D 05 0000021C R		lea	EAX,OFFSET $S000663
 0000184D  6A 00			push	000000000h
 0000184F  50				push	EAX 
 00001850  E8 00000000 E		call	 Console_WriteString
 00001855  E8 00000000 E		call	 Console_WriteCrLf 
 0000185A			$L000662:

 0000185A  5F				pop	EDI
 0000185B  5E				pop	ESI 
 0000185C  5B				pop	EBX 
 0000185D  8B E5			mov	ESP,EBP
 0000185F  5D				pop	EBP 
 00001860  C3				ret	
 00001861			UnitTesting_Triangle_Draw ENDP

 00001861			UnitTesting_Triangle_DrawPiramid PROC NEAR 
 00001861  55				push	EBP
 00001862  8B EC			mov	EBP,ESP
 00001864  51				push	ECX 
 00001865  53				push	EBX 
 00001866  56				push	ESI 
 00001867  57				push	EDI 
 00001868  8D 05 000001E5 R		lea	EAX,OFFSET $S000668
 0000186E  6A 00			push	000000000h
 00001870  50				push	EAX 
 00001871  E8 00000000 E		call	 Console_WriteString
 00001876  E8 00000000 E		call	 Console_WriteCrLf 
 0000187B			$L000667:

 0000187B  5F				pop	EDI
 0000187C  5E				pop	ESI 
 0000187D  5B				pop	EBX 
 0000187E  8B E5			mov	ESP,EBP
 00001880  5D				pop	EBP 
 00001881  C3				ret	
 00001882			UnitTesting_Triangle_DrawPiramid ENDP

 00001882			UnitTesting_Triangle_get_High PROC NEAR 
 00001882  55				push	EBP
 00001883  8B EC			mov	EBP,ESP
 00001885  51				push	ECX 
 00001886  53				push	EBX 
 00001887  56				push	ESI 
 00001888  57				push	EDI 
 00001889  8B 4D FC			mov	ECX,dword ptr [EBP-0004h]
 0000188C  8B 41 10			mov	EAX,dword ptr [ECX+0010h]
 0000188F  8B 51 0C			mov	EDX,dword ptr [ECX+000Ch] 
 00001892  EB 00			jmp	OFFSET $L000656
 00001894			$L000656:

 00001894  5F				pop	EDI
 00001895  5E				pop	ESI 
 00001896  5B				pop	EBX 
 00001897  8B E5			mov	ESP,EBP
 00001899  5D				pop	EBP 
 0000189A  C3				ret	
 0000189B			UnitTesting_Triangle_get_High ENDP

 0000189B			UnitTesting_Triangle_put_High PROC NEAR 
 0000189B  55				push	EBP
 0000189C  8B EC			mov	EBP,ESP
 0000189E  51				push	ECX 
 0000189F  53				push	EBX 
 000018A0  56				push	ESI 
 000018A1  57				push	EDI 
 000018A2  8B 55 08			mov	EDX,dword ptr [EBP+0008h]
 000018A5  8B 45 0C			mov	EAX,dword ptr [EBP+000Ch] 
 000018A8  50				push	EAX
 000018A9  52				push	EDX 
 000018AA  DD C0			ffree	st
 000018AC  DD 04 24			fld	qword ptr [ESP]
 000018AF  8B 4D FC			mov	ECX,dword ptr [EBP-0004h]
 000018B2  DD 59 0C			fstp	qword ptr [ECX+000Ch]
 000018B5			$L000657:
 000018B5  5A				pop	EDX
 000018B6  58				pop	EAX 

 000018B7  5F				pop	EDI
 000018B8  5E				pop	ESI 
 000018B9  5B				pop	EBX 
 000018BA  8B E5			mov	ESP,EBP
 000018BC  5D				pop	EBP 
 000018BD  C2 0008			retn	000000008h
 000018C0			UnitTesting_Triangle_put_High ENDP

 000018C0			UnitTesting_Triangle_Name PROC NEAR 
 000018C0  55				push	EBP
 000018C1  8B EC			mov	EBP,ESP
 000018C3  51				push	ECX 
 000018C4  53				push	EBX 
 000018C5  56				push	ESI 
 000018C6  57				push	EDI 
 000018C7  8D 05 00000259 R		lea	EAX,OFFSET $S000661
 000018CD  EB 00			jmp	OFFSET $L000660
 000018CF			$L000660:

 000018CF  5F				pop	EDI
 000018D0  5E				pop	ESI 
 000018D1  5B				pop	EBX 
 000018D2  8B E5			mov	ESP,EBP
 000018D4  5D				pop	EBP 
 000018D5  C3				ret	
 000018D6			UnitTesting_Triangle_Name ENDP

 000018D6			UnitTesting_Triangle_Type PROC NEAR 
 000018D6  55				push	EBP
 000018D7  8B EC			mov	EBP,ESP
 000018D9  51				push	ECX 
 000018DA  53				push	EBX 
 000018DB  56				push	ESI 
 000018DC  57				push	EDI 
 000018DD  B8 00000003			mov	EAX,000000003h
 000018E2  EB 00			jmp	OFFSET $L000659
 000018E4			$L000659:

 000018E4  5F				pop	EDI
 000018E5  5E				pop	ESI 
 000018E6  5B				pop	EBX 
 000018E7  8B E5			mov	ESP,EBP
 000018E9  5D				pop	EBP 
 000018EA  C3				ret	
 000018EB			UnitTesting_Triangle_Type ENDP

 000018EB			UnitTesting_Triangle PROC NEAR 
 000018EB  55				push	EBP
 000018EC  8B EC			mov	EBP,ESP
 000018EE  51				push	ECX 
 000018EF  53				push	EBX 
 000018F0  56				push	ESI 
 000018F1  57				push	EDI 
 000018F2  8B 4D FC			mov	ECX,dword ptr [EBP-0004h]
 000018F5  E8 FFFFF831			call	 UnitTesting_Shape ;base constructor call
 000018FA  8B 4D FC			mov	ECX,dword ptr [EBP-0004h] 
 000018FD  C7 01 00000088 R		mov	dword ptr [ECX],OFFSET  @@class_vptr_vtbl@@__UnitTesting_Triangle 
 00001903  8B 4D FC			mov	ECX,dword ptr [EBP-0004h] 
 00001906  E8 0000030D			call	 __member_Init@UnitTesting_Triangle 

 0000190B  5F				pop	EDI
 0000190C  5E				pop	ESI 
 0000190D  5B				pop	EBX 
 0000190E  8B E5			mov	ESP,EBP
 00001910  5D				pop	EBP 
 00001911  C3				ret	
 00001912			UnitTesting_Triangle ENDP

 00001912			UnitTesting_Visitor_Visit PROC NEAR 
 00001912  55				push	EBP
 00001913  8B EC			mov	EBP,ESP
 00001915  83 EC 14			sub	ESP,000000014h
 00001918  53				push	EBX 
 00001919  56				push	ESI 
 0000191A  57				push	EDI 
 0000191B  89 4D EC			mov	dword ptr [EBP-0014h],ECX
 0000191E  8B 4D 08			mov	ECX,dword ptr [EBP+0008h]
 00001921  8B 11			mov	EDX,dword ptr [ECX]
 00001923  FF 52 0C			call	dword ptr [EDX+000Ch]
 00001926  33 C0			xor	EAX,EAX
 00001928  8D 5D FC			lea	EBX,dword ptr [EBP-0004h]
 0000192B  89 03			mov	dword ptr [EBX],EAX
 0000192D  8B 4D 08			mov	ECX,dword ptr [EBP+0008h]
 00001930  8B 11			mov	EDX,dword ptr [ECX]
 00001932  FF 12			call	dword ptr [EDX]
 00001934  8B F0			mov	ESI,EAX
 00001936  B8 00000001			mov	EAX,000000001h
 0000193B  3B C6			cmp	EAX,ESI
 0000193D  74 17			jz	OFFSET $L000893
 0000193F  B8 00000002			mov	EAX,000000002h
 00001944  3B C6			cmp	EAX,ESI
 00001946  74 3D			jz	OFFSET $L000894
 00001948  B8 00000003			mov	EAX,000000003h
 0000194D  3B C6			cmp	EAX,ESI
 0000194F  74 63			jz	OFFSET $L000895
 00001951  E9 0000008D			jmp	OFFSET $L000896
 00001956			$L000893:
 00001956  8D 05 000002D4 R		lea	EAX,OFFSET $S000679
 0000195C  6A 00			push	000000000h
 0000195E  50				push	EAX 
 0000195F  E8 00000000 E		call	 Console_WriteString
 00001964  E8 00000000 E		call	 Console_WriteCrLf 
 00001969  8B 5D 08			mov	EBX,dword ptr [EBP+0008h]
 0000196C  8B C3			mov	EAX,EBX 
 0000196E  8D 5D F8			lea	EBX,dword ptr [EBP-0008h]
 00001971  89 03			mov	dword ptr [EBX],EAX
 00001973  8B 4D F8			mov	ECX,dword ptr [EBP-8]
 00001976  8B 11			mov	EDX,dword ptr [ECX]
 00001978  FF 52 14			call	dword ptr [EDX+0014h]
 0000197B  8B 45 F8			mov	EAX,dword ptr [EBP-8]
 0000197E  8D 5D FC			lea	EBX,dword ptr [EBP-0004h]
 00001981  89 03			mov	dword ptr [EBX],EAX
 00001983  EB 5F			jmp	OFFSET $L000892
 00001985			$L000894:
 00001985  8D 05 000002E5 R		lea	EAX,OFFSET $S000681
 0000198B  6A 00			push	000000000h
 0000198D  50				push	EAX 
 0000198E  E8 00000000 E		call	 Console_WriteString
 00001993  E8 00000000 E		call	 Console_WriteCrLf 
 00001998  8B 5D 08			mov	EBX,dword ptr [EBP+0008h]
 0000199B  8B C3			mov	EAX,EBX 
 0000199D  8D 5D F4			lea	EBX,dword ptr [EBP-000Ch]
 000019A0  89 03			mov	dword ptr [EBX],EAX
 000019A2  8B 4D F4			mov	ECX,dword ptr [EBP-12]
 000019A5  E8 FFFFF9AA			call	 UnitTesting_Square_DrawCube
 000019AA  8B 45 F4			mov	EAX,dword ptr [EBP-12]
 000019AD  8D 5D FC			lea	EBX,dword ptr [EBP-0004h]
 000019B0  89 03			mov	dword ptr [EBX],EAX
 000019B2  EB 30			jmp	OFFSET $L000892
 000019B4			$L000895:
 000019B4  8D 05 000002F6 R		lea	EAX,OFFSET $S000683
 000019BA  6A 00			push	000000000h
 000019BC  50				push	EAX 
 000019BD  E8 00000000 E		call	 Console_WriteString
 000019C2  E8 00000000 E		call	 Console_WriteCrLf 
 000019C7  8B 5D 08			mov	EBX,dword ptr [EBP+0008h]
 000019CA  8B C3			mov	EAX,EBX 
 000019CC  8D 5D F0			lea	EBX,dword ptr [EBP-0010h]
 000019CF  89 03			mov	dword ptr [EBX],EAX
 000019D1  8B 4D F0			mov	ECX,dword ptr [EBP-16]
 000019D4  8B 11			mov	EDX,dword ptr [ECX]
 000019D6  FF 52 14			call	dword ptr [EDX+0014h]
 000019D9  8B 45 F0			mov	EAX,dword ptr [EBP-16]
 000019DC  8D 5D FC			lea	EBX,dword ptr [EBP-0004h]
 000019DF  89 03			mov	dword ptr [EBX],EAX
 000019E1  EB 01			jmp	OFFSET $L000892
 000019E3			$L000896:
 000019E3  CC				int	000000003h ;User breakpoint
 000019E4			$L000892:
 000019E4  8B 45 FC			mov	EAX,dword ptr [EBP-4]
 000019E7  8B C8			mov	ECX,EAX 
 000019E9  51				push	ECX
 000019EA  33 C0			xor	EAX,EAX
 000019EC  5B				pop	EBX
 000019ED  3B D8			cmp	EBX,EAX
 000019EF  0F 95 C0			setnz	AL
 000019F2  84 C0			test	AL,AL
 000019F4  74 08			jz	OFFSET $L000897
 000019F6  8B 4D FC			mov	ECX,dword ptr [EBP-4]
 000019F9  8B 11			mov	EDX,dword ptr [ECX]
 000019FB  FF 52 0C			call	dword ptr [EDX+000Ch]
 000019FE			$L000897:
 000019FE  33 C0			xor	EAX,EAX
 00001A00  50				push	EAX
 00001A01  8B 45 FC			mov	EAX,dword ptr [EBP-4]
 00001A04  59				pop	ECX
 00001A05  3B C8			cmp	ECX,EAX
 00001A07  0F 95 C0			setnz	AL
 00001A0A  84 C0			test	AL,AL
 00001A0C  74 08			jz	OFFSET $L000899
 00001A0E  8B 4D FC			mov	ECX,dword ptr [EBP-4]
 00001A11  8B 11			mov	EDX,dword ptr [ECX]
 00001A13  FF 52 0C			call	dword ptr [EDX+000Ch]
 00001A16			$L000899:
 00001A16  8D 05 000000A7 R		lea	EAX,OFFSET $S000685
 00001A1C  6A 00			push	000000000h
 00001A1E  50				push	EAX 
 00001A1F  E8 00000000 E		call	 Console_WriteString
 00001A24  8B 4D FC			mov	ECX,dword ptr [EBP-4]
 00001A27  8B 11			mov	EDX,dword ptr [ECX]
 00001A29  FF 52 08			call	dword ptr [EDX+0008h]
 00001A2C  6A 00			push	000000000h 
 00001A2E  50				push	EAX 
 00001A2F  E8 00000000 E		call	 Console_WriteString 
 00001A34  E8 00000000 E		call	 Console_WriteCrLf 
 00001A39			$L000676:

 00001A39  5F				pop	EDI
 00001A3A  5E				pop	ESI 
 00001A3B  5B				pop	EBX 
 00001A3C  8B E5			mov	ESP,EBP
 00001A3E  5D				pop	EBP 
 00001A3F  C2 0004			retn	000000004h
 00001A42			UnitTesting_Visitor_Visit ENDP

 00001A42			__member_Init@LastFeatures_DoubleProxy PROC NEAR

 00001A42  55				push	EBP
 00001A43  8B EC			mov	EBP,ESP
 00001A45  51				push	ECX 
 00001A46  53				push	EBX 
 00001A47  56				push	ESI 
 00001A48  57				push	EDI 
 00001A49  89 4D FC			mov	dword ptr [EBP-0004h],ECX
 00001A4C  D9 EE			fldz
 00001A4E  8B 4D FC			mov	ECX,dword ptr [EBP-0004h]
 00001A51  DD 59 04			fstp	qword ptr [ECX+0004h]

 00001A54  5F				pop	EDI
 00001A55  5E				pop	ESI 
 00001A56  5B				pop	EBX 
 00001A57  8B E5			mov	ESP,EBP
 00001A59  5D				pop	EBP 
 00001A5A  C3				ret	
 00001A5B			__member_Init@LastFeatures_DoubleProxy ENDP
 00001A5B			__member_Init@LastFeatures_TestProperties PROC NEAR

 00001A5B  55				push	EBP
 00001A5C  8B EC			mov	EBP,ESP
 00001A5E  51				push	ECX 
 00001A5F  53				push	EBX 
 00001A60  56				push	ESI 
 00001A61  57				push	EDI 
 00001A62  89 4D FC			mov	dword ptr [EBP-0004h],ECX
 00001A65  B8 00000003			mov	EAX,000000003h
 00001A6A  50				push	EAX
 00001A6B  B8 00000005			mov	EAX,000000005h
 00001A70  59				pop	ECX
 00001A71  33 D2			xor	EDX,EDX
 00001A73  0F AF C1			imul	EAX,ECX
 00001A76  6B C0 0C			imul	EAX,00000000Ch
 00001A79  8D 58 04			lea	EBX,dword ptr [EAX+4]
 00001A7C  53				push	EBX
 00001A7D  8B D8			mov	EBX,EAX
 00001A7F  E8 00000000 E		call	 System_Memory_New
 00001A84  85 C0			test	EAX,EAX
 00001A86  74 09			jz	 $L000901
 00001A88  8B F0			mov	ESI,EAX 
 00001A8A  89 1E			mov	dword ptr [ESI],EBX 
 00001A8C  83 C6 04			add	ESI,000000004h
 00001A8F  EB 02			jmp	 $L000902
 00001A91			$L000901:
 00001A91  33 F6			xor	ESI,ESI
 00001A93			$L000902:
 00001A93  8B 4D FC			mov	ECX,dword ptr [EBP-0004h]
 00001A96  89 31			mov	dword ptr [ECX],ESI 
 00001A98  8B 4E FC			mov	ECX,dword ptr [ESI-0004h] 
 00001A9B  8D 3C 31			lea	EDI,dword ptr [ESI+ECX] 
 00001A9E  8B DE			mov	EBX,ESI 
 00001AA0			$L000903:
 00001AA0  8B CB			mov	ECX,EBX 
 00001AA2  E8 FFFFF421			call	 UnitTesting_Circle
 00001AA7  83 C3 0C			add	EBX,00000000Ch 
 00001AAA  3B DF			cmp	EBX,EDI
 00001AAC  75 F2			jnz	OFFSET $L000903
 00001AAE  8B C6			mov	EAX,ESI 
 00001AB0  B8 00000004			mov	EAX,000000004h
 00001AB5  6B C0 0C			imul	EAX,00000000Ch
 00001AB8  8D 58 04			lea	EBX,dword ptr [EAX+4]
 00001ABB  53				push	EBX
 00001ABC  8B D8			mov	EBX,EAX
 00001ABE  E8 00000000 E		call	 System_Memory_New
 00001AC3  85 C0			test	EAX,EAX
 00001AC5  74 09			jz	 $L000904
 00001AC7  8B F0			mov	ESI,EAX 
 00001AC9  89 1E			mov	dword ptr [ESI],EBX 
 00001ACB  83 C6 04			add	ESI,000000004h
 00001ACE  EB 02			jmp	 $L000905
 00001AD0			$L000904:
 00001AD0  33 F6			xor	ESI,ESI
 00001AD2			$L000905:
 00001AD2  8B 4D FC			mov	ECX,dword ptr [EBP-0004h]
 00001AD5  89 71 04			mov	dword ptr [ECX+0004h],ESI 
 00001AD8  8B 4E FC			mov	ECX,dword ptr [ESI-0004h] 
 00001ADB  8D 3C 31			lea	EDI,dword ptr [ESI+ECX] 
 00001ADE  8B DE			mov	EBX,ESI 
 00001AE0			$L000906:
 00001AE0  8B CB			mov	ECX,EBX 
 00001AE2  E8 FFFFF3E1			call	 UnitTesting_Circle
 00001AE7  83 C3 0C			add	EBX,00000000Ch 
 00001AEA  3B DF			cmp	EBX,EDI
 00001AEC  75 F2			jnz	OFFSET $L000906
 00001AEE  8B C6			mov	EAX,ESI 
 00001AF0  B8 00000004			mov	EAX,000000004h
 00001AF5  50				push	EAX
 00001AF6  B8 00000005			mov	EAX,000000005h
 00001AFB  59				pop	ECX
 00001AFC  33 D2			xor	EDX,EDX
 00001AFE  0F AF C1			imul	EAX,ECX
 00001B01  6B C0 0C			imul	EAX,00000000Ch
 00001B04  8D 58 04			lea	EBX,dword ptr [EAX+4]
 00001B07  53				push	EBX
 00001B08  8B D8			mov	EBX,EAX
 00001B0A  E8 00000000 E		call	 System_Memory_New
 00001B0F  85 C0			test	EAX,EAX
 00001B11  74 09			jz	 $L000907
 00001B13  8B F0			mov	ESI,EAX 
 00001B15  89 1E			mov	dword ptr [ESI],EBX 
 00001B17  83 C6 04			add	ESI,000000004h
 00001B1A  EB 02			jmp	 $L000908
 00001B1C			$L000907:
 00001B1C  33 F6			xor	ESI,ESI
 00001B1E			$L000908:
 00001B1E  8B 4D FC			mov	ECX,dword ptr [EBP-0004h]
 00001B21  89 71 08			mov	dword ptr [ECX+0008h],ESI 
 00001B24  8B 4E FC			mov	ECX,dword ptr [ESI-0004h] 
 00001B27  8D 3C 31			lea	EDI,dword ptr [ESI+ECX] 
 00001B2A  8B DE			mov	EBX,ESI 
 00001B2C			$L000909:
 00001B2C  8B CB			mov	ECX,EBX 
 00001B2E  E8 FFFFF395			call	 UnitTesting_Circle
 00001B33  83 C3 0C			add	EBX,00000000Ch 
 00001B36  3B DF			cmp	EBX,EDI
 00001B38  75 F2			jnz	OFFSET $L000909
 00001B3A  8B C6			mov	EAX,ESI 

 00001B3C  5F				pop	EDI
 00001B3D  5E				pop	ESI 
 00001B3E  5B				pop	EBX 
 00001B3F  8B E5			mov	ESP,EBP
 00001B41  5D				pop	EBP 
 00001B42  C3				ret	
 00001B43			__member_Init@LastFeatures_TestProperties ENDP
 00001B43			__member_Init@LastFeatures_TestProperties_node PROC NEAR

 00001B43  55				push	EBP
 00001B44  8B EC			mov	EBP,ESP
 00001B46  51				push	ECX 
 00001B47  53				push	EBX 
 00001B48  56				push	ESI 
 00001B49  57				push	EDI 
 00001B4A  89 4D FC			mov	dword ptr [EBP-0004h],ECX
 00001B4D  33 C0			xor	EAX,EAX
 00001B4F  8B 4D FC			mov	ECX,dword ptr [EBP-0004h]
 00001B52  89 01			mov	dword ptr [ECX],EAX
 00001B54  33 C0			xor	EAX,EAX
 00001B56  8B 4D FC			mov	ECX,dword ptr [EBP-0004h]
 00001B59  89 41 04			mov	dword ptr [ECX+0004h],EAX
 00001B5C  33 C0			xor	EAX,EAX
 00001B5E  8B 4D FC			mov	ECX,dword ptr [EBP-0004h]
 00001B61  89 41 08			mov	dword ptr [ECX+0008h],EAX

 00001B64  5F				pop	EDI
 00001B65  5E				pop	ESI 
 00001B66  5B				pop	EBX 
 00001B67  8B E5			mov	ESP,EBP
 00001B69  5D				pop	EBP 
 00001B6A  C3				ret	
 00001B6B			__member_Init@LastFeatures_TestProperties_node ENDP
 00001B6B			__member_Init@UnitTesting_Circle PROC NEAR

 00001B6B  55				push	EBP
 00001B6C  8B EC			mov	EBP,ESP
 00001B6E  51				push	ECX 
 00001B6F  53				push	EBX 
 00001B70  56				push	ESI 
 00001B71  57				push	EDI 
 00001B72  89 4D FC			mov	dword ptr [EBP-0004h],ECX
 00001B75  D9 EE			fldz
 00001B77  8B 4D FC			mov	ECX,dword ptr [EBP-0004h]
 00001B7A  DD 59 04			fstp	qword ptr [ECX+0004h]

 00001B7D  5F				pop	EDI
 00001B7E  5E				pop	ESI 
 00001B7F  5B				pop	EBX 
 00001B80  8B E5			mov	ESP,EBP
 00001B82  5D				pop	EBP 
 00001B83  C3				ret	
 00001B84			__member_Init@UnitTesting_Circle ENDP
 00001B84			__member_Init@UnitTesting_Rnd PROC NEAR

 00001B84  55				push	EBP
 00001B85  8B EC			mov	EBP,ESP
 00001B87  51				push	ECX 
 00001B88  53				push	EBX 
 00001B89  56				push	ESI 
 00001B8A  57				push	EDI 
 00001B8B  89 4D FC			mov	dword ptr [EBP-0004h],ECX
 00001B8E  B8 00000001			mov	EAX,000000001h
 00001B93  A3 00000341 R		mov	 UnitTesting_Rnd_seed,EAX
 00001B98  B8 000041A7			mov	EAX,0000041A7h
 00001B9D  A3 00000345 R		mov	 UnitTesting_Rnd_a,EAX
 00001BA2  B8 7FFFFFFF			mov	EAX,07FFFFFFFh
 00001BA7  A3 00000349 R		mov	 UnitTesting_Rnd_m,EAX
 00001BAC  B8 0001F31D			mov	EAX,00001F31Dh
 00001BB1  A3 0000034D R		mov	 UnitTesting_Rnd_q,EAX
 00001BB6  B8 00000B14			mov	EAX,000000B14h
 00001BBB  A3 00000351 R		mov	 UnitTesting_Rnd_r,EAX

 00001BC0  5F				pop	EDI
 00001BC1  5E				pop	ESI 
 00001BC2  5B				pop	EBX 
 00001BC3  8B E5			mov	ESP,EBP
 00001BC5  5D				pop	EBP 
 00001BC6  C3				ret	
 00001BC7			__member_Init@UnitTesting_Rnd ENDP
 00001BC7			__member_Init@UnitTesting_ShapeFactoryCreator PROC NEAR

 00001BC7  55				push	EBP
 00001BC8  8B EC			mov	EBP,ESP
 00001BCA  51				push	ECX 
 00001BCB  53				push	EBX 
 00001BCC  56				push	ESI 
 00001BCD  57				push	EDI 
 00001BCE  89 4D FC			mov	dword ptr [EBP-0004h],ECX
 00001BD1  6A 0C			push	00000000Ch
 00001BD3  E8 00000000 E		call	 System_Memory_New
 00001BD8  85 C0			test	EAX,EAX
 00001BDA  74 04			jz	 $L000910
 00001BDC  8B F0			mov	ESI,EAX
 00001BDE  EB 02			jmp	 $L000911
 00001BE0			$L000910:
 00001BE0  33 F6			xor	ESI,ESI
 00001BE2			$L000911:
 00001BE2  8B 4D FC			mov	ECX,dword ptr [EBP-0004h]
 00001BE5  89 31			mov	dword ptr [ECX],ESI 
 00001BE7  8B CE			mov	ECX,ESI
 00001BE9  E8 FFFFF2DA			call	 UnitTesting_Circle
 00001BEE  8B C6			mov	EAX,ESI 

 00001BF0  5F				pop	EDI
 00001BF1  5E				pop	ESI 
 00001BF2  5B				pop	EBX 
 00001BF3  8B E5			mov	ESP,EBP
 00001BF5  5D				pop	EBP 
 00001BF6  C3				ret	
 00001BF7			__member_Init@UnitTesting_ShapeFactoryCreator ENDP
 00001BF7			__member_Init@UnitTesting_Square PROC NEAR

 00001BF7  55				push	EBP
 00001BF8  8B EC			mov	EBP,ESP
 00001BFA  51				push	ECX 
 00001BFB  53				push	EBX 
 00001BFC  56				push	ESI 
 00001BFD  57				push	EDI 
 00001BFE  89 4D FC			mov	dword ptr [EBP-0004h],ECX
 00001C01  D9 EE			fldz
 00001C03  8B 4D FC			mov	ECX,dword ptr [EBP-0004h]
 00001C06  DD 59 04			fstp	qword ptr [ECX+0004h]
 00001C09  D9 EE			fldz
 00001C0B  8B 4D FC			mov	ECX,dword ptr [EBP-0004h]
 00001C0E  DD 59 0C			fstp	qword ptr [ECX+000Ch]

 00001C11  5F				pop	EDI
 00001C12  5E				pop	ESI 
 00001C13  5B				pop	EBX 
 00001C14  8B E5			mov	ESP,EBP
 00001C16  5D				pop	EBP 
 00001C17  C3				ret	
 00001C18			__member_Init@UnitTesting_Square ENDP
 00001C18			__member_Init@UnitTesting_Triangle PROC NEAR

 00001C18  55				push	EBP
 00001C19  8B EC			mov	EBP,ESP
 00001C1B  51				push	ECX 
 00001C1C  53				push	EBX 
 00001C1D  56				push	ESI 
 00001C1E  57				push	EDI 
 00001C1F  89 4D FC			mov	dword ptr [EBP-0004h],ECX
 00001C22  D9 EE			fldz
 00001C24  8B 4D FC			mov	ECX,dword ptr [EBP-0004h]
 00001C27  DD 59 04			fstp	qword ptr [ECX+0004h]
 00001C2A  D9 EE			fldz
 00001C2C  8B 4D FC			mov	ECX,dword ptr [EBP-0004h]
 00001C2F  DD 59 0C			fstp	qword ptr [ECX+000Ch]

 00001C32  5F				pop	EDI
 00001C33  5E				pop	ESI 
 00001C34  5B				pop	EBX 
 00001C35  8B E5			mov	ESP,EBP
 00001C37  5D				pop	EBP 
 00001C38  C3				ret	
 00001C39			__member_Init@UnitTesting_Triangle ENDP
 00001C39			LastFeatures_TestFeatures_main PROC NEAR 
 00001C39  55				push	EBP
 00001C3A  8B EC			mov	EBP,ESP
 00001C3C  83 EC 7C			sub	ESP,00000007Ch
 00001C3F  53				push	EBX 
 00001C40  56				push	ESI 
 00001C41  57				push	EDI 
 00001C42  33 C0			xor	EAX,EAX
 00001C44  89 45 FC			mov	dword ptr [EBP-0004h],EAX
 00001C47  EB 06			jmp	OFFSET $L000912
 00001C49			$L000913:
 00001C49  8B 45 FC			mov	EAX,dword ptr [EBP-4]
 00001C4C  FF 45 FC			inc	dword ptr [EBP-4]
 00001C4F			$L000912:
 00001C4F  8B 45 FC			mov	EAX,dword ptr [EBP-0004h]
 00001C52  50				push	EAX
 00001C53  8B 45 08			mov	EAX,dword ptr [EBP+0008h]
 00001C56  5A				pop	EDX
 00001C57  3B D0			cmp	EDX,EAX
 00001C59  0F 9C C0			setl	AL
 00001C5C  84 C0			test	AL,AL
 00001C5E  74 41			jz	OFFSET $L000914
 00001C60  8D 05 0000010F R		lea	EAX,OFFSET $S000758
 00001C66  6A 00			push	000000000h
 00001C68  50				push	EAX 
 00001C69  E8 00000000 E		call	 Console_WriteString
 00001C6E  8B 45 FC			mov	EAX,dword ptr [EBP-0004h]
 00001C71  50				push	EAX 
 00001C72  E8 00000000 E		call	 Console_WriteInteger 
 00001C77  8D 05 00000262 R		lea	EAX,OFFSET $S000759
 00001C7D  6A 00			push	000000000h 
 00001C7F  50				push	EAX 
 00001C80  E8 00000000 E		call	 Console_WriteString 
 00001C85  8B 5D 0C			mov	EBX,dword ptr [EBP+000Ch]
 00001C88  8B C3			mov	EAX,EBX 
 00001C8A  50				push	EAX
 00001C8B  8B 45 FC			mov	EAX,dword ptr [EBP-0004h]
 00001C8E  5E				pop	ESI
 00001C8F  8B 04 86			mov	EAX,dword ptr [ESI+EAX*0004h]
 00001C92  6A 00			push	000000000h 
 00001C94  50				push	EAX 
 00001C95  E8 00000000 E		call	 Console_WriteString 
 00001C9A  E8 00000000 E		call	 Console_WriteCrLf 
 00001C9F  EB A8			jmp	OFFSET $L000913 
 00001CA1			$L000914:
 00001CA1  CC				int	000000003h ;User breakpoint
 00001CA2  8D 05 0000011B R		lea	EAX,OFFSET $S000615
 00001CA8  50				push	EAX
 00001CA9  E8 FFFFF510			call	 UnitTesting_ShapeFactoryCreator_Create
 00001CAE  8D 5D F8			lea	EBX,dword ptr [EBP-0008h]
 00001CB1  89 03			mov	dword ptr [EBX],EAX
 00001CB3  8B 4D F8			mov	ECX,dword ptr [EBP-8]
 00001CB6  8B 11			mov	EDX,dword ptr [ECX]
 00001CB8  FF 52 0C			call	dword ptr [EDX+000Ch]
 00001CBB  8B 45 F8			mov	EAX,dword ptr [EBP-8]
 00001CBE  8D 5D F4			lea	EBX,dword ptr [EBP-000Ch]
 00001CC1  89 03			mov	dword ptr [EBX],EAX
 00001CC3  8B 45 F8			mov	EAX,dword ptr [EBP-8]
 00001CC6  8D 5D F4			lea	EBX,dword ptr [EBP-000Ch]
 00001CC9  89 03			mov	dword ptr [EBX],EAX
 00001CCB  8B 4D F4			mov	ECX,dword ptr [EBP-12]
 00001CCE  8B 11			mov	EDX,dword ptr [ECX]
 00001CD0  FF 52 14			call	dword ptr [EDX+0014h]
 00001CD3  8B 45 F8			mov	EAX,dword ptr [EBP-8]
 00001CD6  50				push	EAX
 00001CD7  8D 4D F0			lea	ECX,dword ptr [EBP-0010h]
 00001CDA  E8 FFFFFC33			call	 UnitTesting_Visitor_Visit
 00001CDF  8B 4D F8			mov	ECX,dword ptr [EBP-8]
 00001CE2  8B F1			mov	ESI,ECX
 00001CE4  85 C9			test	ECX,ECX
 00001CE6  74 05			jz	OFFSET $L000916
 00001CE8  8B 01			mov	EAX,dword ptr [ECX] 
 00001CEA  FF 50 10			call	dword ptr [EAX+0010h]
 00001CED			$L000916:
 00001CED  56				push	ESI
 00001CEE  E8 00000000 E		call	 System_Memory_Destroy
 00001CF3  8D 05 0000011B R		lea	EAX,OFFSET $S000615
 00001CF9  50				push	EAX
 00001CFA  E8 FFFFF4BF			call	 UnitTesting_ShapeFactoryCreator_Create
 00001CFF  8D 5D F8			lea	EBX,dword ptr [EBP-0008h]
 00001D02  89 03			mov	dword ptr [EBX],EAX
 00001D04  8B 4D F8			mov	ECX,dword ptr [EBP-8]
 00001D07  8B 11			mov	EDX,dword ptr [ECX]
 00001D09  FF 52 0C			call	dword ptr [EDX+000Ch]
 00001D0C  8B 4D F8			mov	ECX,dword ptr [EBP-8]
 00001D0F  8B F1			mov	ESI,ECX
 00001D11  85 C9			test	ECX,ECX
 00001D13  74 05			jz	OFFSET $L000918
 00001D15  8B 01			mov	EAX,dword ptr [ECX] 
 00001D17  FF 50 10			call	dword ptr [EAX+0010h]
 00001D1A			$L000918:
 00001D1A  56				push	ESI
 00001D1B  E8 00000000 E		call	 System_Memory_Destroy
 00001D20  8D 05 00000259 R		lea	EAX,OFFSET $S000661
 00001D26  50				push	EAX
 00001D27  E8 FFFFF492			call	 UnitTesting_ShapeFactoryCreator_Create
 00001D2C  8D 5D F8			lea	EBX,dword ptr [EBP-0008h]
 00001D2F  89 03			mov	dword ptr [EBX],EAX
 00001D31  8B 4D F8			mov	ECX,dword ptr [EBP-8]
 00001D34  8B 11			mov	EDX,dword ptr [ECX]
 00001D36  FF 52 0C			call	dword ptr [EDX+000Ch]
 00001D39  8B 4D F8			mov	ECX,dword ptr [EBP-8]
 00001D3C  8B F1			mov	ESI,ECX
 00001D3E  85 C9			test	ECX,ECX
 00001D40  74 05			jz	OFFSET $L000920
 00001D42  8B 01			mov	EAX,dword ptr [ECX] 
 00001D44  FF 50 10			call	dword ptr [EAX+0010h]
 00001D47			$L000920:
 00001D47  56				push	ESI
 00001D48  E8 00000000 E		call	 System_Memory_Destroy
 00001D4D  8D 05 00000252 R		lea	EAX,OFFSET $S000641
 00001D53  50				push	EAX
 00001D54  E8 FFFFF465			call	 UnitTesting_ShapeFactoryCreator_Create
 00001D59  8D 5D F8			lea	EBX,dword ptr [EBP-0008h]
 00001D5C  89 03			mov	dword ptr [EBX],EAX
 00001D5E  8B 4D F8			mov	ECX,dword ptr [EBP-8]
 00001D61  8B 11			mov	EDX,dword ptr [ECX]
 00001D63  FF 52 0C			call	dword ptr [EDX+000Ch]
 00001D66  8B 4D F8			mov	ECX,dword ptr [EBP-8]
 00001D69  8B F1			mov	ESI,ECX
 00001D6B  85 C9			test	ECX,ECX
 00001D6D  74 05			jz	OFFSET $L000922
 00001D6F  8B 01			mov	EAX,dword ptr [ECX] 
 00001D71  FF 50 10			call	dword ptr [EAX+0010h]
 00001D74			$L000922:
 00001D74  56				push	ESI
 00001D75  E8 00000000 E		call	 System_Memory_Destroy
 00001D7A  8D 4D A8			lea	ECX,dword ptr [EBP-0058h]
 00001D7D  E8 FFFFE918			call	 LastFeatures_TestProperties
 00001D82  B8 00000014			mov	EAX,000000014h
 00001D87  6B C0 0C			imul	EAX,00000000Ch
 00001D8A  8D 58 04			lea	EBX,dword ptr [EAX+4]
 00001D8D  53				push	EBX
 00001D8E  8B D8			mov	EBX,EAX
 00001D90  E8 00000000 E		call	 System_Memory_New
 00001D95  85 C0			test	EAX,EAX
 00001D97  74 09			jz	 $L000923
 00001D99  8B F0			mov	ESI,EAX 
 00001D9B  89 1E			mov	dword ptr [ESI],EBX 
 00001D9D  83 C6 04			add	ESI,000000004h
 00001DA0  EB 02			jmp	 $L000924
 00001DA2			$L000923:
 00001DA2  33 F6			xor	ESI,ESI
 00001DA4			$L000924:
 00001DA4  89 75 A4			mov	dword ptr [EBP-005Ch],ESI 
 00001DA7  8B 4E FC			mov	ECX,dword ptr [ESI-0004h] 
 00001DAA  8D 3C 31			lea	EDI,dword ptr [ESI+ECX] 
 00001DAD  8B DE			mov	EBX,ESI 
 00001DAF			$L000925:
 00001DAF  8B CB			mov	ECX,EBX 
 00001DB1  E8 FFFFF112			call	 UnitTesting_Circle
 00001DB6  83 C3 0C			add	EBX,00000000Ch 
 00001DB9  3B DF			cmp	EBX,EDI
 00001DBB  75 F2			jnz	OFFSET $L000925
 00001DBD  8B C6			mov	EAX,ESI 
 00001DBF  8B 45 A4			mov	EAX,dword ptr [EBP-92]
 00001DC2  50				push	EAX
 00001DC3  8D 4D A8			lea	ECX,dword ptr [EBP-0058h]
 00001DC6  E8 FFFFE504			call	 LastFeatures_TestProperties_put_Shapes
 00001DCB  B8 DEADC0DE			mov	EAX,0DEADC0DEh
 00001DD0  89 45 A0			mov	dword ptr [EBP-0060h],EAX
 00001DD3  8B 45 A0			mov	EAX,dword ptr [EBP-0060h]
 00001DD6  C1 E0 10			shl	EAX,000000010h
 00001DD9  89 45 A0			mov	dword ptr [EBP-0060h],EAX
 00001DDC  8B 45 A0			mov	EAX,dword ptr [EBP-0060h]
 00001DDF  C1 E8 08			shr	EAX,000000008h
 00001DE2  89 45 A0			mov	dword ptr [EBP-0060h],EAX
 00001DE5  8B 45 A0			mov	EAX,dword ptr [EBP-0060h]
 00001DE8  C1 E8 08			shr	EAX,000000008h
 00001DEB  89 45 A0			mov	dword ptr [EBP-0060h],EAX
 00001DEE  B8 00000010			mov	EAX,000000010h
 00001DF3  66| 89 45 9C			mov	word ptr [EBP-0064h],AX
 00001DF7  8B 45 A0			mov	EAX,dword ptr [EBP-0060h]
 00001DFA  50				push	EAX
 00001DFB  0F BF 45 9C			movsx	EAX,word ptr [EBP-0064h]
 00001DFF  8A C8			mov	CL,AL
 00001E01  58				pop	EAX
 00001E02  D3 E0			shl	EAX,CL
 00001E04  6A 08			push	000000008h
 00001E06  E8 00000000 E		call	 System_Memory_New
 00001E0B  85 C0			test	EAX,EAX
 00001E0D  74 04			jz	 $L000926
 00001E0F  8B F0			mov	ESI,EAX
 00001E11  EB 02			jmp	 $L000927
 00001E13			$L000926:
 00001E13  33 F6			xor	ESI,ESI
 00001E15			$L000927:
 00001E15  89 75 98			mov	dword ptr [EBP-0068h],ESI 
 00001E18  8B 45 98			mov	EAX,dword ptr [EBP-104]
 00001E1B  50				push	EAX
 00001E1C  BA A06A5D05			mov	EDX,0A06A5D05h
 00001E21  B8 400921D3			mov	EAX,0400921D3h 
 00001E26  5B				pop	EBX
 00001E27  89 13			mov	dword ptr [EBX],EDX
 00001E29  89 43 04			mov	dword ptr [EBX+4],EAX 
 00001E2C  8D 05 000000C0 R		lea	EAX,OFFSET $S000773
 00001E32  6A 00			push	000000000h
 00001E34  50				push	EAX 
 00001E35  E8 00000000 E		call	 Console_WriteString
 00001E3A  8B 45 98			mov	EAX,dword ptr [EBP-104]
 00001E3D  8B 10			mov	EDX,dword ptr [EAX]
 00001E3F  8B 40 04			mov	EAX,dword ptr [EAX+4] 
 00001E42  50				push	EAX 
 00001E43  52				push	EDX 
 00001E44  E8 00000000 E		call	 Console_WriteDouble 
 00001E49  E8 00000000 E		call	 Console_WriteCrLf 
 00001E4E  8B 45 98			mov	EAX,dword ptr [EBP-104]
 00001E51  8B 10			mov	EDX,dword ptr [EAX]
 00001E53  8B 40 04			mov	EAX,dword ptr [EAX+4] 
 00001E56  50				push	EAX
 00001E57  52				push	EDX 
 00001E58  DD C0			ffree	st
 00001E5A  DD 04 24			fld	qword ptr [ESP]
 00001E5D  DD 5D 90			fstp	qword ptr [EBP-0070h]
 00001E60  5A				pop	EDX
 00001E61  58				pop	EAX 
 00001E62  8D 05 000002C2 R		lea	EAX,OFFSET $S000775
 00001E68  6A 00			push	000000000h
 00001E6A  50				push	EAX 
 00001E6B  E8 00000000 E		call	 Console_WriteString
 00001E70  8B 55 90			mov	EDX,dword ptr [EBP-0070h]
 00001E73  8B 45 94			mov	EAX,dword ptr [EBP-006Ch] 
 00001E76  50				push	EAX 
 00001E77  52				push	EDX 
 00001E78  E8 00000000 E		call	 Console_WriteDouble 
 00001E7D  E8 00000000 E		call	 Console_WriteCrLf 
 00001E82  8B 45 98			mov	EAX,dword ptr [EBP-104]
 00001E85  85 C0			test	EAX,EAX
 00001E87  74 06			jz	OFFSET $L000928
 00001E89  50				push	EAX
 00001E8A  E8 00000000 E		call	 System_Memory_Destroy
 00001E8F			$L000928:
 00001E8F  B8 0000000A			mov	EAX,00000000Ah
 00001E94  89 45 88			mov	dword ptr [EBP-0078h],EAX
 00001E97  8B 45 88			mov	EAX,dword ptr [EBP-0078h]
 00001E9A  6B C0 0C			imul	EAX,00000000Ch
 00001E9D  8D 58 04			lea	EBX,dword ptr [EAX+4]
 00001EA0  53				push	EBX
 00001EA1  8B D8			mov	EBX,EAX
 00001EA3  E8 00000000 E		call	 System_Memory_New
 00001EA8  85 C0			test	EAX,EAX
 00001EAA  74 09			jz	 $L000929
 00001EAC  8B F0			mov	ESI,EAX 
 00001EAE  89 1E			mov	dword ptr [ESI],EBX 
 00001EB0  83 C6 04			add	ESI,000000004h
 00001EB3  EB 02			jmp	 $L000930
 00001EB5			$L000929:
 00001EB5  33 F6			xor	ESI,ESI
 00001EB7			$L000930:
 00001EB7  89 75 84			mov	dword ptr [EBP-007Ch],ESI 
 00001EBA  8B 4E FC			mov	ECX,dword ptr [ESI-0004h] 
 00001EBD  8D 3C 31			lea	EDI,dword ptr [ESI+ECX] 
 00001EC0  8B DE			mov	EBX,ESI 
 00001EC2			$L000931:
 00001EC2  8B CB			mov	ECX,EBX 
 00001EC4  E8 FFFFE137			call	 LastFeatures_DoubleProxy
 00001EC9  83 C3 0C			add	EBX,00000000Ch 
 00001ECC  3B DF			cmp	EBX,EDI
 00001ECE  75 F2			jnz	OFFSET $L000931
 00001ED0  8B C6			mov	EAX,ESI 
 00001ED2  8B 45 84			mov	EAX,dword ptr [EBP-124]
 00001ED5  50				push	EAX
 00001ED6  33 C0			xor	EAX,EAX
 00001ED8  5E				pop	ESI
 00001ED9  6B C0 0C			imul	EAX,00000000Ch
 00001EDC  8D 0C 30			lea	ECX,dword ptr [ESI+EAX]
 00001EDF  8D 41 04			lea	EAX,dword ptr [ECX+0004h]
 00001EE2  50				push	EAX
 00001EE3  BA 33333334			mov	EDX,033333334h
 00001EE8  B8 40333333			mov	EAX,040333333h 
 00001EED  50				push	EAX
 00001EEE  52				push	EDX 
 00001EEF  DD C0			ffree	st
 00001EF1  DD 04 24			fld	qword ptr [ESP]
 00001EF4  5A				pop	EDX
 00001EF5  58				pop	EAX 
 00001EF6  5B				pop	EBX
 00001EF7  DD 1B			fstp	qword ptr [EBX]
 00001EF9  8B 45 84			mov	EAX,dword ptr [EBP-124]
 00001EFC  50				push	EAX
 00001EFD  B8 00000001			mov	EAX,000000001h
 00001F02  5E				pop	ESI
 00001F03  6B C0 0C			imul	EAX,00000000Ch
 00001F06  8D 0C 30			lea	ECX,dword ptr [ESI+EAX]
 00001F09  8D 41 04			lea	EAX,dword ptr [ECX+0004h]
 00001F0C  50				push	EAX
 00001F0D  BA 33333334			mov	EDX,033333334h
 00001F12  B8 3FF33333			mov	EAX,03FF33333h 
 00001F17  50				push	EAX
 00001F18  52				push	EDX 
 00001F19  DD C0			ffree	st
 00001F1B  DD 04 24			fld	qword ptr [ESP]
 00001F1E  5A				pop	EDX
 00001F1F  58				pop	EAX 
 00001F20  5B				pop	EBX
 00001F21  DD 1B			fstp	qword ptr [EBX]
 00001F23  8B 45 84			mov	EAX,dword ptr [EBP-124]
 00001F26  50				push	EAX
 00001F27  B8 00000002			mov	EAX,000000002h
 00001F2C  5E				pop	ESI
 00001F2D  6B C0 0C			imul	EAX,00000000Ch
 00001F30  8D 0C 30			lea	ECX,dword ptr [ESI+EAX]
 00001F33  8D 41 04			lea	EAX,dword ptr [ECX+0004h]
 00001F36  50				push	EAX
 00001F37  BA F765FD8B			mov	EDX,0F765FD8Bh
 00001F3C  B8 401961E4			mov	EAX,0401961E4h 
 00001F41  50				push	EAX
 00001F42  52				push	EDX 
 00001F43  DD C0			ffree	st
 00001F45  DD 04 24			fld	qword ptr [ESP]
 00001F48  5A				pop	EDX
 00001F49  58				pop	EAX 
 00001F4A  5B				pop	EBX
 00001F4B  DD 1B			fstp	qword ptr [EBX]
 00001F4D  8B 45 84			mov	EAX,dword ptr [EBP-124]
 00001F50  50				push	EAX
 00001F51  B8 00000004			mov	EAX,000000004h
 00001F56  5E				pop	ESI
 00001F57  6B C0 0C			imul	EAX,00000000Ch
 00001F5A  8D 0C 30			lea	ECX,dword ptr [ESI+EAX]
 00001F5D  8D 41 04			lea	EAX,dword ptr [ECX+0004h]
 00001F60  50				push	EAX
 00001F61  BA C49BA5E4			mov	EDX,0C49BA5E4h
 00001F66  B8 401CF020			mov	EAX,0401CF020h 
 00001F6B  50				push	EAX
 00001F6C  52				push	EDX 
 00001F6D  DD C0			ffree	st
 00001F6F  DD 04 24			fld	qword ptr [ESP]
 00001F72  5A				pop	EDX
 00001F73  58				pop	EAX 
 00001F74  5B				pop	EBX
 00001F75  DD 1B			fstp	qword ptr [EBX]
 00001F77  8B 45 84			mov	EAX,dword ptr [EBP-124]
 00001F7A  50				push	EAX
 00001F7B  B8 00000005			mov	EAX,000000005h
 00001F80  5E				pop	ESI
 00001F81  6B C0 0C			imul	EAX,00000000Ch
 00001F84  8D 0C 30			lea	ECX,dword ptr [ESI+EAX]
 00001F87  8D 41 04			lea	EAX,dword ptr [ECX+0004h]
 00001F8A  50				push	EAX
 00001F8B  BA 95182A9A			mov	EDX,095182A9Ah
 00001F90  B8 4028E9D4			mov	EAX,04028E9D4h 
 00001F95  50				push	EAX
 00001F96  52				push	EDX 
 00001F97  DD C0			ffree	st
 00001F99  DD 04 24			fld	qword ptr [ESP]
 00001F9C  5A				pop	EDX
 00001F9D  58				pop	EAX 
 00001F9E  5B				pop	EBX
 00001F9F  DD 1B			fstp	qword ptr [EBX]
 00001FA1  8B 45 84			mov	EAX,dword ptr [EBP-124]
 00001FA4  50				push	EAX
 00001FA5  B8 00000006			mov	EAX,000000006h
 00001FAA  5E				pop	ESI
 00001FAB  6B C0 0C			imul	EAX,00000000Ch
 00001FAE  8D 0C 30			lea	ECX,dword ptr [ESI+EAX]
 00001FB1  8D 41 04			lea	EAX,dword ptr [ECX+0004h]
 00001FB4  50				push	EAX
 00001FB5  BA 624DD2F2			mov	EDX,0624DD2F2h
 00001FBA  B8 40227810			mov	EAX,040227810h 
 00001FBF  50				push	EAX
 00001FC0  52				push	EDX 
 00001FC1  DD C0			ffree	st
 00001FC3  DD 04 24			fld	qword ptr [ESP]
 00001FC6  5A				pop	EDX
 00001FC7  58				pop	EAX 
 00001FC8  5B				pop	EBX
 00001FC9  DD 1B			fstp	qword ptr [EBX]
 00001FCB  8B 45 84			mov	EAX,dword ptr [EBP-124]
 00001FCE  50				push	EAX
 00001FCF  B8 00000007			mov	EAX,000000007h
 00001FD4  5E				pop	ESI
 00001FD5  6B C0 0C			imul	EAX,00000000Ch
 00001FD8  8D 0C 30			lea	ECX,dword ptr [ESI+EAX]
 00001FDB  8D 41 04			lea	EAX,dword ptr [ECX+0004h]
 00001FDE  50				push	EAX
 00001FDF  BA DB22D0E6			mov	EDX,0DB22D0E6h
 00001FE4  B8 402E3EF9			mov	EAX,0402E3EF9h 
 00001FE9  50				push	EAX
 00001FEA  52				push	EDX 
 00001FEB  DD C0			ffree	st
 00001FED  DD 04 24			fld	qword ptr [ESP]
 00001FF0  5A				pop	EDX
 00001FF1  58				pop	EAX 
 00001FF2  5B				pop	EBX
 00001FF3  DD 1B			fstp	qword ptr [EBX]
 00001FF5  8B 45 84			mov	EAX,dword ptr [EBP-124]
 00001FF8  50				push	EAX
 00001FF9  B8 00000008			mov	EAX,000000008h
 00001FFE  5E				pop	ESI
 00001FFF  6B C0 0C			imul	EAX,00000000Ch
 00002002  8D 0C 30			lea	ECX,dword ptr [ESI+EAX]
 00002005  8D 41 04			lea	EAX,dword ptr [ECX+0004h]
 00002008  50				push	EAX
 00002009  BA 89374BC7			mov	EDX,089374BC7h
 0000200E  B8 4009E041			mov	EAX,04009E041h 
 00002013  50				push	EAX
 00002014  52				push	EDX 
 00002015  DD C0			ffree	st
 00002017  DD 04 24			fld	qword ptr [ESP]
 0000201A  5A				pop	EDX
 0000201B  58				pop	EAX 
 0000201C  5B				pop	EBX
 0000201D  DD 1B			fstp	qword ptr [EBX]
 0000201F  8B 45 84			mov	EAX,dword ptr [EBP-124]
 00002022  50				push	EAX
 00002023  B8 00000009			mov	EAX,000000009h
 00002028  5E				pop	ESI
 00002029  6B C0 0C			imul	EAX,00000000Ch
 0000202C  8D 0C 30			lea	ECX,dword ptr [ESI+EAX]
 0000202F  8D 41 04			lea	EAX,dword ptr [ECX+0004h]
 00002032  50				push	EAX
 00002033  BA 2474538F			mov	EDX,02474538Fh
 00002038  B8 40321F97			mov	EAX,040321F97h 
 0000203D  50				push	EAX
 0000203E  52				push	EDX 
 0000203F  DD C0			ffree	st
 00002041  DD 04 24			fld	qword ptr [ESP]
 00002044  5A				pop	EDX
 00002045  58				pop	EAX 
 00002046  5B				pop	EBX
 00002047  DD 1B			fstp	qword ptr [EBX]
 00002049  8B 45 88			mov	EAX,dword ptr [EBP-0078h]
 0000204C  50				push	EAX 
 0000204D  8B 45 84			mov	EAX,dword ptr [EBP-124]
 00002050  50				push	EAX
 00002051  8D 4D 8C			lea	ECX,dword ptr [EBP-0074h]
 00002054  E8 FFFFE125			call	 LastFeatures_SortDoubleProxy_Sort
 00002059  8B 45 84			mov	EAX,dword ptr [EBP-124]
 0000205C  85 C0			test	EAX,EAX
 0000205E  74 25			jz	OFFSET $L000932
 00002060  8B F0			mov	ESI,EAX
 00002062  8B 4E FC			mov	ECX,dword ptr [ESI-0004h]
 00002065  8D 3C 31			lea	EDI,dword ptr [ESI+ECX]
 00002068  8B DE			mov	EBX,ESI 
 0000206A			$L000933:
 0000206A  8B CB			mov	ECX,EBX 
 0000206C  85 C9			test	ECX,ECX
 0000206E  74 05			jz	OFFSET $L000934
 00002070  8B 01			mov	EAX,dword ptr [ECX]
 00002072  FF 50 0C			call	dword ptr [EAX+000Ch]
 00002075			$L000934:
 00002075  83 C3 0C			add	EBX,00000000Ch
 00002078  3B DF			cmp	EBX,EDI
 0000207A  75 EE			jnz	OFFSET $L000933

 0000207C  83 C6 FC			add	ESI,0FFFFFFFCh
 0000207F  56				push	ESI
 00002080  E8 00000000 E		call	 System_Memory_Destroy
 00002085			$L000932:
 00002085  EB 00			jmp	OFFSET $L000754
 00002087			$L000754:

 00002087  5F				pop	EDI
 00002088  5E				pop	ESI 
 00002089  5B				pop	EBX 
 0000208A  8B E5			mov	ESP,EBP
 0000208C  5D				pop	EBP 
 0000208D  C2 0008			retn	000000008h
 00002090			LastFeatures_TestFeatures_main ENDP

 00002090			__System_Hpp_Runtime_Init PROC

 00002090  55				push	EBP
 00002091  8B EC			mov	EBP,ESP
 00002093  51				push	ECX 
 00002094  53				push	EBX 
 00002095  56				push	ESI 
 00002096  57				push	EDI 
 00002097  E8 00000000 E		call	 GetVersion
 0000209C  A3 00000309 R		mov	 __osver,EAX ;os version
 000020A1  A1 00000309 R		mov	EAX, __osver 
 000020A6  C1 E8 08			shr	EAX,000000008h
 000020A9  25 000000FF			and	EAX,0000000FFh
 000020AE  A3 0000030D R		mov	 __winminor,EAX ;windows minor
 000020B3  8B 0D 00000309 R		mov	ECX, __osver 
 000020B9  81 E1 000000FF		and	ECX,0000000FFh 
 000020BF  89 0D 00000311 R		mov	 __winmajor,ECX ;windows major
 000020C5  8B 15 00000311 R		mov	EDX,dword ptr __winmajor 
 000020CB  C1 E2 08			shl	EDX,000000008h
 000020CE  03 15 0000030D R		add	EDX,dword ptr __winminor
 000020D4  89 15 00000315 R		mov	dword ptr __winver,EDX ;windows version
 000020DA  A1 00000309 R		mov	EAX, __osver 
 000020DF  C1 E8 10			shr	EAX,000000010h 
 000020E2  25 0000FFFF			and	EAX,00000FFFFh 
 000020E7  A3 00000309 R		mov	 __osver,EAX 
 000020EC  8D 1D 0000033D R		lea	EBX,dword ptr ___argc
 000020F2  53				push	EBX
 000020F3  E8 00000000 E		call	 System_GetCommandLineArgv 
 000020F8  A3 00000339 R		mov	dword ptr ___argv,EAX 
 000020FD  50				push	EAX 
 000020FE  8B 0D 0000033D R		mov	ECX,dword ptr ___argc 
 00002104  51				push	ECX 
 00002105  E8 FFFFFB2F			call	 LastFeatures_TestFeatures_main ;user entry point (stdcall calling convention)
 0000210A  50				push	EAX 
 0000210B  A1 00000339 R		mov	EAX,dword ptr ___argv 
 00002110  50				push	EAX 
 00002111  E8 00000000 E		call	 System_Memory_GetProcessHeap 
 00002116  50				push	EAX 
 00002117  E8 00000000 E		call	 System_Memory_Free 
 0000211C  E8 00000000 E		call	 System_Exit 

 00002121  5F				pop	EDI
 00002122  5E				pop	ESI 
 00002123  5B				pop	EBX 
 00002124  8B E5			mov	ESP,EBP
 00002126  5D				pop	EBP 
 00002127  C3				ret	
 00002128			__System_Hpp_Runtime_Init ENDP

 00000000			.DATA ;data segment
 00000000 000000DF R		@@class_vptr_vtbl@@__LastFeatures_DoubleProxy	DWORD	OFFSET LastFeatures_DoubleProxy_lessThan,
	   0000009D R
	   0000003A R
	   00000146 R
										OFFSET LastFeatures_DoubleProxy_isEqual,
										OFFSET LastFeatures_DoubleProxy_Swap,
										OFFSET LastFeatures_SimpleObject_Destructor

 00000010 00000000 E		@@class_vptr_vtbl@@__LastFeatures_SimpleObject	DWORD	OFFSET __purecall,
	   00000000 E
	   00000000 E
	   00000146 R
										OFFSET __purecall,
										OFFSET __purecall,
										OFFSET LastFeatures_SimpleObject_Destructor

 00000020 00000121 R		@@class_vptr_vtbl@@__LastFeatures_HObject	DWORD	OFFSET LastFeatures_HObject_Destructor

 00000024 0000023E R		@@class_vptr_vtbl@@__LastFeatures_SwapperObject	DWORD	OFFSET LastFeatures_SwapperObject_Swap

 00000028 00000EB3 R		@@class_vptr_vtbl@@__UnitTesting_Circle	DWORD	OFFSET UnitTesting_Circle_Type,
	   00000DB9 R
	   00000E5F R
	   00000E1D R
	   00000DF0 R
	   00000E3E R
										OFFSET UnitTesting_Circle_ComputeArea,
										OFFSET UnitTesting_Circle_Name,
										OFFSET UnitTesting_Circle_Draw,
										OFFSET UnitTesting_Circle_Destructor,
										OFFSET UnitTesting_Circle_DrawSphere

 00000040 00000000 E		@@class_vptr_vtbl@@__UnitTesting_Shape	DWORD	OFFSET __purecall,
	   00000000 E
	   00000000 E
	   00000000 E
	   00000000 E
										OFFSET __purecall,
										OFFSET __purecall,
										OFFSET __purecall,
										OFFSET __purecall

 00000054 000013C9 R		@@class_vptr_vtbl@@__UnitTesting_Square	DWORD	OFFSET UnitTesting_Square_Type,
	   000012D2 R
	   000013B3 R
	   00001333 R
	   00001306 R
										OFFSET UnitTesting_Square_ComputeArea,
										OFFSET UnitTesting_Square_Name,
										OFFSET UnitTesting_Square_Draw,
										OFFSET UnitTesting_Square_Destructor

 00000068 0000155A R		@@class_vptr_vtbl@@__UnitTesting_TestVirtuals_ExponentialRV	DWORD	OFFSET UnitTesting_TestVirtuals_ExponentialRV_Sample,
	   00001544 R
										OFFSET UnitTesting_TestVirtuals_ExponentialRV_Name

 00000070 00000000 E		@@class_vptr_vtbl@@__UnitTesting_TestVirtuals_RandomVariable	DWORD	OFFSET __purecall,
	   000015D0 R
										OFFSET UnitTesting_TestVirtuals_RandomVariable_Name

 00000078 00001613 R		@@class_vptr_vtbl@@__UnitTesting_TestVirtuals_SimpleRV	DWORD	OFFSET UnitTesting_TestVirtuals_SimpleRV_Sample,
	   000015FD R
										OFFSET UnitTesting_TestVirtuals_SimpleRV_Name

 00000080 0000165D R		@@class_vptr_vtbl@@__UnitTesting_TestVirtuals_UniformRV	DWORD	OFFSET UnitTesting_TestVirtuals_UniformRV_Sample,
	   00001647 R
										OFFSET UnitTesting_TestVirtuals_UniformRV_Name

 00000088 000018D6 R		@@class_vptr_vtbl@@__UnitTesting_Triangle	DWORD	OFFSET UnitTesting_Triangle_Type,
	   000017C2 R
	   000018C0 R
	   00001840 R
	   00001811 R
	   00001861 R
										OFFSET UnitTesting_Triangle_ComputeArea,
										OFFSET UnitTesting_Triangle_Name,
										OFFSET UnitTesting_Triangle_Draw,
										OFFSET UnitTesting_Triangle_Destructor,
										OFFSET UnitTesting_Triangle_DrawPiramid

 = FFFFFFFF			File_INVALID_HANDLE_VALUE	=	0FFFFFFFFh
 = FFFFFFFF			File_INVALID_SET_FILE_POINTER	=	0FFFFFFFFh
 = 00000001			UnitTesting_TestSwitch_open	=	000000001h
 = 00000002			UnitTesting_TestSwitch_close	=	000000002h
 = 00000003			UnitTesting_TestSwitch_write	=	000000003h
 = 00000004			UnitTesting_TestSwitch_read	=	000000004h

 000000A0 28 6E 6F 6E 65	$S000542 		BYTE 	"(none)",0
	   29 00
 000000A7 2A 2A 56 69 73	$S000685 		BYTE 	"**Visited object name = ",0
	   69 74 65 64 20
	   6F 62 6A 65 63
	   74 20 6E 61 6D
	   65 20 3D 20 00
 000000C0 2A 70 20 28 33	$S000773 		BYTE 	"*p (3.1415...)= ",0
	   2E 31 34 31 35
	   2E 2E 2E 29 3D
	   20 00
 000000D1 41 20 73 69 6D	$S000547 		BYTE 	"A simple variable",0
	   70 6C 65 20 76
	   61 72 69 61 62
	   6C 65 00
 000000E3 41 6E 20 65 78	$S000575 		BYTE 	"An exponential variable",0
	   70 6F 6E 65 6E
	   74 69 61 6C 20
	   76 61 72 69 61
	   62 6C 65 00
 000000FB 41 6E 20 75 6E	$S000565 		BYTE 	"An uniform variable",0
	   69 66 6F 72 6D
	   20 76 61 72 69
	   61 62 6C 65 00
 0000010F 41 72 67 75 6D	$S000758 		BYTE 	"Argument: [",0
	   65 6E 74 3A 20
	   5B 00
 0000011B 43 69 72 63 6C	$S000615 		BYTE 	"Circle",0
	   65 00
 00000122 43 6C 6F 73 69	$S000584 		BYTE 	"Closing file...",0
	   6E 67 20 66 69
	   6C 65 2E 2E 2E
	   00
 00000132 43 6F 6E 73 74	$S000702 		BYTE 	"Constructing a Double Proxy...",0
	   72 75 63 74 69
	   6E 67 20 61 20
	   44 6F 75 62 6C
	   65 20 50 72 6F
	   78 79 2E 2E 2E
	   00
 00000151 44 65 73 74 72	$S000697 		BYTE 	"Destroying a Simple Object...",0
	   6F 79 69 6E 67
	   20 61 20 53 69
	   6D 70 6C 65 20
	   4F 62 6A 65 63
	   74 2E 2E 2E 00
 0000016F 44 6F 20 36 2C	$S000590 		BYTE 	"Do 6, then finish",0
	   20 74 68 65 6E
	   20 66 69 6E 69
	   73 68 00
 00000181 44 6F 20 52 65	$S000586 		BYTE 	"Do Read from file...",0
	   61 64 20 66 72
	   6F 6D 20 66 69
	   6C 65 2E 2E 2E
	   00
 00000196 44 6F 20 57 72	$S000585 		BYTE 	"Do Write to file...",0
	   69 74 65 20 74
	   6F 20 66 69 6C
	   65 2E 2E 2E 00
 000001AA 44 6F 20 66 6F	$S000588 		BYTE 	"Do for 5 and follow to 6",0
	   72 20 35 20 61
	   6E 64 20 66 6F
	   6C 6C 6F 77 20
	   74 6F 20 36 00
 000001C3 44 72 61 77 69	$S000617 		BYTE 	"Drawing a Circle!",0
	   6E 67 20 61 20
	   43 69 72 63 6C
	   65 21 00
 000001D5 44 72 61 77 69	$S000645 		BYTE 	"Drawing a Cube!",0
	   6E 67 20 61 20
	   43 75 62 65 21
	   00
 000001E5 44 72 61 77 69	$S000668 		BYTE 	"Drawing a Piramid!",0
	   6E 67 20 61 20
	   50 69 72 61 6D
	   69 64 21 00
 000001F8 44 72 61 77 69	$S000622 		BYTE 	"Drawing a Sphere!",0
	   6E 67 20 61 20
	   53 70 68 65 72
	   65 21 00
 0000020A 44 72 61 77 69	$S000643 		BYTE 	"Drawing a Square!",0
	   6E 67 20 61 20
	   53 71 75 61 72
	   65 21 00
 0000021C 44 72 61 77 69	$S000663 		BYTE 	"Drawing a Triangle!",0
	   6E 67 20 61 20
	   54 72 69 61 6E
	   67 6C 65 21 00
 00000230 49 6E 76 61 6C	$S000591 		BYTE 	"Invalid Option : ",0
	   69 64 20 4F 70
	   74 69 6F 6E 20
	   3A 20 00
 00000242 4F 70 65 6E 69	$S000583 		BYTE 	"Opening file...",0
	   6E 67 20 66 69
	   6C 65 2E 2E 2E
	   00
 00000252 53 71 75 61 72	$S000641 		BYTE 	"Square",0
	   65 00
 00000259 54 72 69 61 6E	$S000661 		BYTE 	"Triangle",0
	   67 6C 65 00
 00000262 5D 3D 20 00		$S000759 		BYTE 	"]= ",0
 00000266 64 65 73 74 72	$S000620 		BYTE 	"destroying a Circle object...",0
	   6F 79 69 6E 67
	   20 61 20 43 69
	   72 63 6C 65 20
	   6F 62 6A 65 63
	   74 2E 2E 2E 00
 00000284 64 65 73 74 72	$S000629 		BYTE 	"destroying a Square object...",0
	   6F 79 69 6E 67
	   20 61 20 53 71
	   75 61 72 65 20
	   6F 62 6A 65 63
	   74 2E 2E 2E 00
 000002A2 64 65 73 74 72	$S000666 		BYTE 	"destroying a Triangle object...",0
	   6F 79 69 6E 67
	   20 61 20 54 72
	   69 61 6E 67 6C
	   65 20 6F 62 6A
	   65 63 74 2E 2E
	   2E 00
 000002C2 72 65 73 20 28	$S000775 		BYTE 	"res (3.1415...)= ",0
	   33 2E 31 34 31
	   35 2E 2E 2E 29
	   3D 20 00
 000002D4 74 79 70 65 20	$S000679 		BYTE 	"type == stCircle",0
	   3D 3D 20 73 74
	   43 69 72 63 6C
	   65 00
 000002E5 74 79 70 65 20	$S000681 		BYTE 	"type == stSquare",0
	   3D 3D 20 73 74
	   53 71 75 61 72
	   65 00
 000002F6 74 79 70 65 20	$S000683 		BYTE 	"type == stTriangle",0
	   3D 3D 20 73 74
	   54 72 69 61 6E
	   67 6C 65 00

 00000309 00000000		__osver 		DWORD 	0;Windows OS version
 0000030D 00000000		__winminor 		DWORD 	0;Windows minor version
 00000311 00000000		__winmajor 		DWORD 	0;Windows major version
 00000315 00000000		__winver 		DWORD 	0;Windows version
 00000319  00000020 [		__computer 		BYTE 	000000020h DUP(?);Computer name
	    00
	   ]
 00000339 00000000		___argv 		DWORD 	0;Array of argument values
 0000033D 00000000		___argc 		DWORD 	0;Argument count
 00000341 00000000		UnitTesting_Rnd_seed	 DWORD	0
 00000345 00000000		UnitTesting_Rnd_a	 DWORD	0
 00000349 00000000		UnitTesting_Rnd_m	 DWORD	0
 0000034D 00000000		UnitTesting_Rnd_q	 DWORD	0
 00000351 00000000		UnitTesting_Rnd_r	 DWORD	0

				END __System_Hpp_Runtime_Init

Microsoft (R) Macro Assembler Version 6.15.8803		    02/16/10 00:49:30
lastfeatures.hpp					     Symbols 2 - 1
This file was automatically generated by the 32-bit H++ Comp



Structures and Unions:

                N a m e                  Size
                                         Offset      Type

CONSOLE_CURSOR_INFO  . . . . . .	 00000008
  dwSize . . . . . . . . . . . .	 00000000	 DWord
  bVisible . . . . . . . . . . .	 00000004	 DWord
CONSOLE_SCREEN_BUFFER_INFO . . .	 00000016
  dwSize . . . . . . . . . . . .	 00000000	 DWord
  dwCursorPos  . . . . . . . . .	 00000004	 DWord
  wAttributes  . . . . . . . . .	 00000008	 Word
  srWindow . . . . . . . . . . .	 0000000A	 QWord
  maxWinSize . . . . . . . . . .	 00000012	 DWord
COORD  . . . . . . . . . . . . .	 00000004
  X  . . . . . . . . . . . . . .	 00000000	 Word
  Y  . . . . . . . . . . . . . .	 00000002	 Word
FILETIME . . . . . . . . . . . .	 00000008
  loDateTime . . . . . . . . . .	 00000000	 DWord
  hiDateTime . . . . . . . . . .	 00000004	 DWord
SMALL_RECT . . . . . . . . . . .	 00000008
  Left . . . . . . . . . . . . .	 00000000	 Word
  Top  . . . . . . . . . . . . .	 00000002	 Word
  Right  . . . . . . . . . . . .	 00000004	 Word
  Bottom . . . . . . . . . . . .	 00000006	 Word
SYSTEMTIME . . . . . . . . . . .	 00000010
  wYear  . . . . . . . . . . . .	 00000000	 Word
  wMonth . . . . . . . . . . . .	 00000002	 Word
  wDayOfWeek . . . . . . . . . .	 00000004	 Word
  wDay . . . . . . . . . . . . .	 00000006	 Word
  wHour  . . . . . . . . . . . .	 00000008	 Word
  wMinute  . . . . . . . . . . .	 0000000A	 Word
  wSecond  . . . . . . . . . . .	 0000000C	 Word
  wMilliseconds  . . . . . . . .	 0000000E	 Word


Segments and Groups:

                N a m e                 Size     Length   Align   Combine Class

FLAT . . . . . . . . . . . . . .	GROUP
STACK  . . . . . . . . . . . . .	32 Bit	 00100000 Para	  Stack	  'STACK'	 
_DATA  . . . . . . . . . . . . .	32 Bit	 00000355 Para	  Public  'DATA'	
_TEXT  . . . . . . . . . . . . .	32 Bit	 00002128 Para	  Public  'CODE'	


Procedures,  parameters and locals:

                N a m e                 Type     Value    Attr

CloseHandle  . . . . . . . . . .	P Near	 00000000 FLAT	Length= 00000000 External STDCALL
Console_ClearScreen  . . . . . .	P Near	 00000000 FLAT	Length= 00000000 External STDCALL
Console_GetTitle . . . . . . . .	P Near	 00000000 FLAT	Length= 00000000 External STDCALL
Console_MoveWindow . . . . . . .	P Near	 00000000 FLAT	Length= 00000000 External STDCALL
Console_ReadChar . . . . . . . .	P Near	 00000000 FLAT	Length= 00000000 External STDCALL
Console_ReadDouble . . . . . . .	P Near	 00000000 FLAT	Length= 00000000 External STDCALL
Console_ReadInteger  . . . . . .	P Near	 00000000 FLAT	Length= 00000000 External STDCALL
Console_ReadString . . . . . . .	P Near	 00000000 FLAT	Length= 00000000 External STDCALL
Console_SetConsoleSize . . . . .	P Near	 00000000 FLAT	Length= 00000000 External STDCALL
Console_SetCursorPos . . . . . .	P Near	 00000000 FLAT	Length= 00000000 External STDCALL
Console_SetTextColor . . . . . .	P Near	 00000000 FLAT	Length= 00000000 External STDCALL
Console_SetTitle . . . . . . . .	P Near	 00000000 FLAT	Length= 00000000 External STDCALL
Console_WriteBoolean . . . . . .	P Near	 00000000 FLAT	Length= 00000000 External STDCALL
Console_WriteChar  . . . . . . .	P Near	 00000000 FLAT	Length= 00000000 External STDCALL
Console_WriteCrlf  . . . . . . .	P Near	 00000000 FLAT	Length= 00000000 External STDCALL
Console_WriteDouble  . . . . . .	P Near	 00000000 FLAT	Length= 00000000 External STDCALL
Console_WriteInteger64 . . . . .	P Near	 00000000 FLAT	Length= 00000000 External STDCALL
Console_WriteInteger . . . . . .	P Near	 00000000 FLAT	Length= 00000000 External STDCALL
Console_WriteString  . . . . . .	P Near	 00000000 FLAT	Length= 00000000 External STDCALL
CreateFileA  . . . . . . . . . .	P Near	 00000000 FLAT	Length= 00000000 External STDCALL
ExitProcess  . . . . . . . . . .	P Near	 00000000 FLAT	Length= 00000000 External STDCALL
File_Close . . . . . . . . . . .	P Near	 00000000 FLAT	Length= 00000000 External STDCALL
File_FileSize  . . . . . . . . .	P Near	 00000000 FLAT	Length= 00000000 External STDCALL
File_Open  . . . . . . . . . . .	P Near	 00000000 FLAT	Length= 00000000 External STDCALL
File_Read  . . . . . . . . . . .	P Near	 00000000 FLAT	Length= 00000000 External STDCALL
File_Seek  . . . . . . . . . . .	P Near	 00000000 FLAT	Length= 00000000 External STDCALL
File_Write . . . . . . . . . . .	P Near	 00000000 FLAT	Length= 00000000 External STDCALL
FloatingPoint_CompareToInteger .	P Near	 00000000 FLAT	Length= 00000000 External STDCALL
FloatingPoint_Compare  . . . . .	P Near	 00000000 FLAT	Length= 00000000 External STDCALL
FloatingPoint_FromInt64  . . . .	P Near	 00000000 FLAT	Length= 00000000 External STDCALL
FloatingPoint_FromInt  . . . . .	P Near	 00000000 FLAT	Length= 00000000 External STDCALL
FloatingPoint_ToInt64  . . . . .	P Near	 00000000 FLAT	Length= 00000000 External STDCALL
FloatingPoint_ToInt  . . . . . .	P Near	 00000000 FLAT	Length= 00000000 External STDCALL
FloatingPoint_fromString . . . .	P Near	 00000000 FLAT	Length= 00000000 External STDCALL
FloatingPoint_toStringEx . . . .	P Near	 00000000 FLAT	Length= 00000000 External STDCALL
FloatingPoint_toString . . . . .	P Near	 00000000 FLAT	Length= 00000000 External STDCALL
FlushConsoleInputBuffer  . . . .	P Near	 00000000 FLAT	Length= 00000000 External STDCALL
GetCommandLineA  . . . . . . . .	P Near	 00000000 FLAT	Length= 00000000 External STDCALL
GetConsoleCP . . . . . . . . . .	P Near	 00000000 FLAT	Length= 00000000 External STDCALL
GetConsoleCursorInfo . . . . . .	P Near	 00000000 FLAT	Length= 00000000 External STDCALL
GetConsoleMode . . . . . . . . .	P Near	 00000000 FLAT	Length= 00000000 External STDCALL
GetConsoleScreenBufferInfo . . .	P Near	 00000000 FLAT	Length= 00000000 External STDCALL
GetKeyState  . . . . . . . . . .	P Near	 00000000 FLAT	Length= 00000000 External STDCALL
GetLastError . . . . . . . . . .	P Near	 00000000 FLAT	Length= 00000000 External STDCALL
GetLocalTime . . . . . . . . . .	P Near	 00000000 FLAT	Length= 00000000 External STDCALL
GetNumberOfConsoleInputEvents  .	P Near	 00000000 FLAT	Length= 00000000 External STDCALL
GetProcessHeap . . . . . . . . .	P Near	 00000000 FLAT	Length= 00000000 External STDCALL
GetStdHandle . . . . . . . . . .	P Near	 00000000 FLAT	Length= 00000000 External STDCALL
GetSystemTime  . . . . . . . . .	P Near	 00000000 FLAT	Length= 00000000 External STDCALL
GetTickCount . . . . . . . . . .	P Near	 00000000 FLAT	Length= 00000000 External STDCALL
GetVersion . . . . . . . . . . .	P Near	 00000000 FLAT	Length= 00000000 External STDCALL
HeapAlloc  . . . . . . . . . . .	P Near	 00000000 FLAT	Length= 00000000 External STDCALL
HeapCreate . . . . . . . . . . .	P Near	 00000000 FLAT	Length= 00000000 External STDCALL
HeapDestroy  . . . . . . . . . .	P Near	 00000000 FLAT	Length= 00000000 External STDCALL
HeapFree . . . . . . . . . . . .	P Near	 00000000 FLAT	Length= 00000000 External STDCALL
HeapSize . . . . . . . . . . . .	P Near	 00000000 FLAT	Length= 00000000 External STDCALL
Integer_fromString . . . . . . .	P Near	 00000000 FLAT	Length= 00000000 External STDCALL
Integer_toStringEx . . . . . . .	P Near	 00000000 FLAT	Length= 00000000 External STDCALL
Integer_toString . . . . . . . .	P Near	 00000000 FLAT	Length= 00000000 External STDCALL
LastFeatures_DoubleProxy_Swap  .	P Near	 0000003A _TEXT	Length= 00000063 Public STDCALL
  $L000709 . . . . . . . . . . .	L Near	 00000094 _TEXT	
LastFeatures_DoubleProxy_isEqual .	P Near	 0000009D _TEXT	Length= 00000042 Public STDCALL
  $L000706 . . . . . . . . . . .	L Near	 000000D6 _TEXT	
LastFeatures_DoubleProxy_lessThan 	P Near	 000000DF _TEXT	Length= 00000042 Public STDCALL
  $L000703 . . . . . . . . . . .	L Near	 00000118 _TEXT	
LastFeatures_DoubleProxy . . . .	P Near	 00000000 _TEXT	Length= 0000003A Public STDCALL
LastFeatures_HObject_Destructor 	P Near	 00000121 _TEXT	Length= 0000000E Public STDCALL
  $L000727 . . . . . . . . . . .	L Near	 00000128 _TEXT	
LastFeatures_HObject . . . . . .	P Near	 0000012F _TEXT	Length= 00000017 Public STDCALL
LastFeatures_SimpleObject_Destructor .	P Near	 00000146 _TEXT	Length= 00000021 Public STDCALL
  $L000696 . . . . . . . . . . .	L Near	 00000160 _TEXT	
LastFeatures_SimpleObject  . . .	P Near	 00000167 _TEXT	Length= 00000017 Public STDCALL
LastFeatures_SortDoubleProxy_Sort 	P Near	 0000017E _TEXT	Length= 000000C0 Public STDCALL
  $L000793 . . . . . . . . . . .	L Near	 00000194 _TEXT	
  $L000792 . . . . . . . . . . .	L Near	 0000019A _TEXT	
  $L000796 . . . . . . . . . . .	L Near	 000001B6 _TEXT	
  $L000795 . . . . . . . . . . .	L Near	 000001BC _TEXT	
  $L000798 . . . . . . . . . . .	L Near	 0000022E _TEXT	
  $L000797 . . . . . . . . . . .	L Near	 00000230 _TEXT	
  $L000794 . . . . . . . . . . .	L Near	 00000235 _TEXT	
  $L000720 . . . . . . . . . . .	L Near	 00000235 _TEXT	
LastFeatures_SwapperObject_Swap 	P Near	 0000023E _TEXT	Length= 00000063 Public STDCALL
  $L000714 . . . . . . . . . . .	L Near	 00000290 _TEXT	
  $L000800 . . . . . . . . . . .	L Near	 00000298 _TEXT	
LastFeatures_SwapperObject . . .	P Near	 000002A1 _TEXT	Length= 00000017 Public STDCALL
LastFeatures_TestFeatures_main .	P Near	 00001C39 _TEXT	Length= 00000457 Public STDCALL
  $L000913 . . . . . . . . . . .	L Near	 00001C49 _TEXT	
  $L000912 . . . . . . . . . . .	L Near	 00001C4F _TEXT	
  $L000914 . . . . . . . . . . .	L Near	 00001CA1 _TEXT	
  $L000916 . . . . . . . . . . .	L Near	 00001CED _TEXT	
  $L000918 . . . . . . . . . . .	L Near	 00001D1A _TEXT	
  $L000920 . . . . . . . . . . .	L Near	 00001D47 _TEXT	
  $L000922 . . . . . . . . . . .	L Near	 00001D74 _TEXT	
  $L000923 . . . . . . . . . . .	L Near	 00001DA2 _TEXT	
  $L000924 . . . . . . . . . . .	L Near	 00001DA4 _TEXT	
  $L000925 . . . . . . . . . . .	L Near	 00001DAF _TEXT	
  $L000926 . . . . . . . . . . .	L Near	 00001E13 _TEXT	
  $L000927 . . . . . . . . . . .	L Near	 00001E15 _TEXT	
  $L000928 . . . . . . . . . . .	L Near	 00001E8F _TEXT	
  $L000929 . . . . . . . . . . .	L Near	 00001EB5 _TEXT	
  $L000930 . . . . . . . . . . .	L Near	 00001EB7 _TEXT	
  $L000931 . . . . . . . . . . .	L Near	 00001EC2 _TEXT	
  $L000933 . . . . . . . . . . .	L Near	 0000206A _TEXT	
  $L000934 . . . . . . . . . . .	L Near	 00002075 _TEXT	
  $L000932 . . . . . . . . . . .	L Near	 00002085 _TEXT	
  $L000754 . . . . . . . . . . .	L Near	 00002087 _TEXT	
LastFeatures_TestProperties_get_Shapes . P Near	  000002B8 _TEXT	Length= 00000017 Public STDCALL
  $L000743 . . . . . . . . . . .	L Near	 000002C8 _TEXT	
LastFeatures_TestProperties_node_Destructor  P Near   000006B0 _TEXT	Length= 00000095 Public STDCALL
  $L000843 . . . . . . . . . . .	L Near	 000006DD _TEXT	
  $L000840 . . . . . . . . . . .	L Near	 000006E3 _TEXT	
  $L000847 . . . . . . . . . . .	L Near	 0000070B _TEXT	
  $L000844 . . . . . . . . . . .	L Near	 00000711 _TEXT	
  $L000851 . . . . . . . . . . .	L Near	 00000738 _TEXT	
  $L000848 . . . . . . . . . . .	L Near	 0000073E _TEXT	
  $L000735 . . . . . . . . . . .	L Near	 0000073E _TEXT	
LastFeatures_TestProperties_node .	P Near	 00000745 _TEXT	Length= 00000016 Public STDCALL
LastFeatures_TestProperties_put_Shapes . P Near	  000002CF _TEXT	Length= 000003CB Public STDCALL
  $L000802 . . . . . . . . . . .	L Near	 000002FE _TEXT	
  $L000803 . . . . . . . . . . .	L Near	 00000300 _TEXT	
  $L000804 . . . . . . . . . . .	L Near	 00000322 _TEXT	
  $L000805 . . . . . . . . . . .	L Near	 00000324 _TEXT	
  $L000806 . . . . . . . . . . .	L Near	 00000346 _TEXT	
  $L000807 . . . . . . . . . . .	L Near	 00000348 _TEXT	
  $L000809 . . . . . . . . . . .	L Near	 0000036E _TEXT	
  $L000810 . . . . . . . . . . .	L Near	 000003A6 _TEXT	
  $L000811 . . . . . . . . . . .	L Near	 000003A8 _TEXT	
  $L000813 . . . . . . . . . . .	L Near	 000003CF _TEXT	
  $L000814 . . . . . . . . . . .	L Near	 000003FB _TEXT	
  $L000815 . . . . . . . . . . .	L Near	 000003FD _TEXT	
  $L000818 . . . . . . . . . . .	L Near	 000004EF _TEXT	
  $L000816 . . . . . . . . . . .	L Near	 000004EF _TEXT	
  $L000820 . . . . . . . . . . .	L Near	 00000507 _TEXT	
  $L000821 . . . . . . . . . . .	L Near	 00000512 _TEXT	
  $L000819 . . . . . . . . . . .	L Near	 00000522 _TEXT	
  $L000823 . . . . . . . . . . .	L Near	 00000548 _TEXT	
  $L000824 . . . . . . . . . . .	L Near	 00000553 _TEXT	
  $L000822 . . . . . . . . . . .	L Near	 00000563 _TEXT	
  $L000825 . . . . . . . . . . .	L Near	 00000570 _TEXT	
  $L000827 . . . . . . . . . . .	L Near	 000005AD _TEXT	
  $L000826 . . . . . . . . . . .	L Near	 000005B9 _TEXT	
  $L000828 . . . . . . . . . . .	L Near	 000005E6 _TEXT	
  $L000829 . . . . . . . . . . .	L Near	 00000606 _TEXT	
  $L000830 . . . . . . . . . . .	L Near	 00000608 _TEXT	
  $L000831 . . . . . . . . . . .	L Near	 00000616 _TEXT	
  $L000833 . . . . . . . . . . .	L Near	 0000064F _TEXT	
  $L000834 . . . . . . . . . . .	L Near	 0000065A _TEXT	
  $L000832 . . . . . . . . . . .	L Near	 0000066A _TEXT	
  $L000744 . . . . . . . . . . .	L Near	 0000066A _TEXT	
  $L000836 . . . . . . . . . . .	L Near	 00000677 _TEXT	
  $L000837 . . . . . . . . . . .	L Near	 00000682 _TEXT	
  $L000838 . . . . . . . . . . .	L Near	 00000691 _TEXT	
LastFeatures_TestProperties  . .	P Near	 0000069A _TEXT	Length= 00000016 Public STDCALL
Math_Abs . . . . . . . . . . . .	P Near	 00000000 FLAT	Length= 00000000 External STDCALL
Math_ArcTan  . . . . . . . . . .	P Near	 00000000 FLAT	Length= 00000000 External STDCALL
Math_ChangeSign  . . . . . . . .	P Near	 00000000 FLAT	Length= 00000000 External STDCALL
Math_Cosec . . . . . . . . . . .	P Near	 00000000 FLAT	Length= 00000000 External STDCALL
Math_Cos . . . . . . . . . . . .	P Near	 00000000 FLAT	Length= 00000000 External STDCALL
Math_Cotan . . . . . . . . . . .	P Near	 00000000 FLAT	Length= 00000000 External STDCALL
Math_DegreesToRadians  . . . . .	P Near	 0000075B _TEXT	Length= 0000004C Public STDCALL
  $L000464 . . . . . . . . . . .	L Near	 0000079E _TEXT	
Math_Even  . . . . . . . . . . .	P Near	 00000000 FLAT	Length= 00000000 External STDCALL
Math_Exp . . . . . . . . . . . .	P Near	 00000000 FLAT	Length= 00000000 External STDCALL
Math_Gcd . . . . . . . . . . . .	P Near	 00000000 FLAT	Length= 00000000 External STDCALL
Math_GetNumberFrom . . . . . . .	P Near	 00000000 FLAT	Length= 00000000 External STDCALL
Math_Hyperbolic_HCosec . . . . .	P Near	 00000807 _TEXT	Length= 00000062 Public STDCALL
  $L000487 . . . . . . . . . . .	L Near	 00000860 _TEXT	
Math_Hyperbolic_HCos . . . . . .	P Near	 000007A7 _TEXT	Length= 00000060 Public STDCALL
  $L000481 . . . . . . . . . . .	L Near	 000007FE _TEXT	
Math_Hyperbolic_HCotan . . . . .	P Near	 00000869 _TEXT	Length= 00000086 Public STDCALL
  $L000489 . . . . . . . . . . .	L Near	 000008E6 _TEXT	
Math_Hyperbolic_HSec . . . . . .	P Near	 000008EF _TEXT	Length= 00000060 Public STDCALL
  $L000485 . . . . . . . . . . .	L Near	 00000946 _TEXT	
Math_Hyperbolic_HSin . . . . . .	P Near	 0000094F _TEXT	Length= 00000062 Public STDCALL
  $L000478 . . . . . . . . . . .	L Near	 000009A8 _TEXT	
Math_Hyperbolic_HTan . . . . . .	P Near	 000009B1 _TEXT	Length= 00000086 Public STDCALL
  $L000483 . . . . . . . . . . .	L Near	 00000A2E _TEXT	
Math_Hyperbolic_Inverse_HArccosec 	P Near	 00000AA0 _TEXT	Length= 0000009F Public STDCALL
  $L000501 . . . . . . . . . . .	L Near	 00000B36 _TEXT	
Math_Hyperbolic_Inverse_HArccos 	P Near	 00000A37 _TEXT	Length= 00000069 Public STDCALL
  $L000495 . . . . . . . . . . .	L Near	 00000A97 _TEXT	
Math_Hyperbolic_Inverse_HArccotan 	P Near	 00000B3F _TEXT	Length= 00000086 Public STDCALL
  $L000503 . . . . . . . . . . .	L Near	 00000BBC _TEXT	
Math_Hyperbolic_Inverse_HArcsec 	P Near	 00000BC5 _TEXT	Length= 0000008A Public STDCALL
  $L000499 . . . . . . . . . . .	L Near	 00000C46 _TEXT	
Math_Hyperbolic_Inverse_HArcsin 	P Near	 00000C4F _TEXT	Length= 00000067 Public STDCALL
  $L000492 . . . . . . . . . . .	L Near	 00000CAD _TEXT	
Math_Hyperbolic_Inverse_HArctan 	P Near	 00000CB6 _TEXT	Length= 00000086 Public STDCALL
  $L000497 . . . . . . . . . . .	L Near	 00000D33 _TEXT	
Math_IEEEModulus . . . . . . . .	P Near	 00000000 FLAT	Length= 00000000 External STDCALL
Math_Init  . . . . . . . . . . .	P Near	 00000000 FLAT	Length= 00000000 External STDCALL
Math_Inverse_Arccosec  . . . . .	P Near	 00000000 FLAT	Length= 00000000 External STDCALL
Math_Inverse_Arccos  . . . . . .	P Near	 00000000 FLAT	Length= 00000000 External STDCALL
Math_Inverse_Arccotan  . . . . .	P Near	 00000000 FLAT	Length= 00000000 External STDCALL
Math_Inverse_Arcsec  . . . . . .	P Near	 00000000 FLAT	Length= 00000000 External STDCALL
Math_Inverse_Arcsin  . . . . . .	P Near	 00000000 FLAT	Length= 00000000 External STDCALL
Math_Ln  . . . . . . . . . . . .	P Near	 00000000 FLAT	Length= 00000000 External STDCALL
Math_LogN_base . . . . . . . . .	P Near	 00000000 FLAT	Length= 00000000 External STDCALL
Math_MantissaOf  . . . . . . . .	P Near	 00000000 FLAT	Length= 00000000 External STDCALL
Math_Max . . . . . . . . . . . .	P Near	 00000000 FLAT	Length= 00000000 External STDCALL
Math_Min . . . . . . . . . . . .	P Near	 00000000 FLAT	Length= 00000000 External STDCALL
Math_ModulusTruncateDivisor  . .	P Near	 00000000 FLAT	Length= 00000000 External STDCALL
Math_Modulus . . . . . . . . . .	P Near	 00000000 FLAT	Length= 00000000 External STDCALL
Math_Odd . . . . . . . . . . . .	P Near	 00000000 FLAT	Length= 00000000 External STDCALL
Math_Pow2  . . . . . . . . . . .	P Near	 00000000 FLAT	Length= 00000000 External STDCALL
Math_Pow . . . . . . . . . . . .	P Near	 00000000 FLAT	Length= 00000000 External STDCALL
Math_RadiansToDegrees  . . . . .	P Near	 00000D3C _TEXT	Length= 0000004C Public STDCALL
  $L000461 . . . . . . . . . . .	L Near	 00000D7F _TEXT	
Math_Round . . . . . . . . . . .	P Near	 00000000 FLAT	Length= 00000000 External STDCALL
Math_Sec . . . . . . . . . . . .	P Near	 00000000 FLAT	Length= 00000000 External STDCALL
Math_Sign  . . . . . . . . . . .	P Near	 00000000 FLAT	Length= 00000000 External STDCALL
Math_Sin . . . . . . . . . . . .	P Near	 00000000 FLAT	Length= 00000000 External STDCALL
Math_Sqrt  . . . . . . . . . . .	P Near	 00000000 FLAT	Length= 00000000 External STDCALL
Math_Sqr . . . . . . . . . . . .	P Near	 00000000 FLAT	Length= 00000000 External STDCALL
Math_Tan . . . . . . . . . . . .	P Near	 00000000 FLAT	Length= 00000000 External STDCALL
Math_Trunc . . . . . . . . . . .	P Near	 00000000 FLAT	Length= 00000000 External STDCALL
Math_log10 . . . . . . . . . . .	P Near	 00000000 FLAT	Length= 00000000 External STDCALL
Math_log2  . . . . . . . . . . .	P Near	 00000000 FLAT	Length= 00000000 External STDCALL
Math_log_10_base2  . . . . . . .	P Near	 00000000 FLAT	Length= 00000000 External STDCALL
Math_log_2_base10  . . . . . . .	P Near	 00000000 FLAT	Length= 00000000 External STDCALL
Math_log_2_base_e  . . . . . . .	P Near	 00000000 FLAT	Length= 00000000 External STDCALL
Math_log_e_base2 . . . . . . . .	P Near	 00000000 FLAT	Length= 00000000 External STDCALL
Math_pi  . . . . . . . . . . . .	P Near	 00000000 FLAT	Length= 00000000 External STDCALL
PeekConsoleInputA  . . . . . . .	P Near	 00000000 FLAT	Length= 00000000 External STDCALL
ReadConsoleA . . . . . . . . . .	P Near	 00000000 FLAT	Length= 00000000 External STDCALL
ReadConsoleInputA  . . . . . . .	P Near	 00000000 FLAT	Length= 00000000 External STDCALL
ReadFile . . . . . . . . . . . .	P Near	 00000000 FLAT	Length= 00000000 External STDCALL
SetConsoleCursorInfo . . . . . .	P Near	 00000000 FLAT	Length= 00000000 External STDCALL
SetConsoleCursorPosition . . . .	P Near	 00000000 FLAT	Length= 00000000 External STDCALL
SetConsoleMode . . . . . . . . .	P Near	 00000000 FLAT	Length= 00000000 External STDCALL
SetConsoleScreenBufferSize . . .	P Near	 00000000 FLAT	Length= 00000000 External STDCALL
SetConsoleTextAttribute  . . . .	P Near	 00000000 FLAT	Length= 00000000 External STDCALL
SetConsoleTitleA . . . . . . . .	P Near	 00000000 FLAT	Length= 00000000 External STDCALL
SetConsoleWindowInfo . . . . . .	P Near	 00000000 FLAT	Length= 00000000 External STDCALL
SetFilePointer . . . . . . . . .	P Near	 00000000 FLAT	Length= 00000000 External STDCALL
SetLocalTime . . . . . . . . . .	P Near	 00000000 FLAT	Length= 00000000 External STDCALL
Sleep  . . . . . . . . . . . . .	P Near	 00000000 FLAT	Length= 00000000 External STDCALL
StringHandling_StringCompare . .	P Near	 00000000 FLAT	Length= 00000000 External STDCALL
StringHandling_StringCopy  . . .	P Near	 00000000 FLAT	Length= 00000000 External STDCALL
StringHandling_StringLCase . . .	P Near	 00000000 FLAT	Length= 00000000 External STDCALL
StringHandling_StringLength2 . .	P Near	 00000000 FLAT	Length= 00000000 External STDCALL
StringHandling_StringLength  . .	P Near	 00000000 FLAT	Length= 00000000 External STDCALL
StringHandling_StringSet . . . .	P Near	 00000000 FLAT	Length= 00000000 External STDCALL
StringHandling_StringUCase . . .	P Near	 00000000 FLAT	Length= 00000000 External STDCALL
SystemTimeToFileTime . . . . . .	P Near	 00000000 FLAT	Length= 00000000 External STDCALL
System_BreakPoint  . . . . . . .	P Near	 00000000 FLAT	Length= 00000000 External STDCALL
System_CommandLineArgs . . . . .	P Near	 00000000 FLAT	Length= 00000000 External STDCALL
System_Debug_OutputString  . . .	P Near	 00000000 FLAT	Length= 00000000 External STDCALL
System_Execute . . . . . . . . .	P Near	 00000000 FLAT	Length= 00000000 External STDCALL
System_Exit  . . . . . . . . . .	P Near	 00000000 FLAT	Length= 00000000 External STDCALL
System_GetCommandLineArgv  . . .	P Near	 00000000 FLAT	Length= 00000000 External STDCALL
System_GetTickCount  . . . . . .	P Near	 00000000 FLAT	Length= 00000000 External STDCALL
System_IsDebuggerPresent . . . .	P Near	 00000000 FLAT	Length= 00000000 External STDCALL
System_LastError . . . . . . . .	P Near	 00000000 FLAT	Length= 00000000 External STDCALL
System_Memory_Alloc  . . . . . .	P Near	 00000000 FLAT	Length= 00000000 External STDCALL
System_Memory_Destroy  . . . . .	P Near	 00000000 FLAT	Length= 00000000 External STDCALL
System_Memory_Free . . . . . . .	P Near	 00000000 FLAT	Length= 00000000 External STDCALL
System_Memory_GetProcessHeap . .	P Near	 00000000 FLAT	Length= 00000000 External STDCALL
System_Memory_Memset . . . . . .	P Near	 00000000 FLAT	Length= 00000000 External STDCALL
System_Memory_New  . . . . . . .	P Near	 00000000 FLAT	Length= 00000000 External STDCALL
System_Memory_SizeFor  . . . . .	P Near	 00000000 FLAT	Length= 00000000 External STDCALL
System_Memory_Size . . . . . . .	P Near	 00000000 FLAT	Length= 00000000 External STDCALL
System_ShowMessage . . . . . . .	P Near	 00000000 FLAT	Length= 00000000 External STDCALL
System_Sleep . . . . . . . . . .	P Near	 00000000 FLAT	Length= 00000000 External STDCALL
UnitTesting_Circle_Circumference .	P Near	 00000D88 _TEXT	Length= 00000031 Public STDCALL
  $L000612 . . . . . . . . . . .	L Near	 00000DB2 _TEXT	
UnitTesting_Circle_ComputeArea .	P Near	 00000DB9 _TEXT	Length= 00000037 Public STDCALL
  $L000618 . . . . . . . . . . .	L Near	 00000DE9 _TEXT	
UnitTesting_Circle_Destructor  .	P Near	 00000DF0 _TEXT	Length= 0000002D Public STDCALL
  $L000619 . . . . . . . . . . .	L Near	 00000E16 _TEXT	
UnitTesting_Circle_DrawSphere  .	P Near	 00000E3E _TEXT	Length= 00000021 Public STDCALL
  $L000621 . . . . . . . . . . .	L Near	 00000E58 _TEXT	
UnitTesting_Circle_Draw  . . . .	P Near	 00000E1D _TEXT	Length= 00000021 Public STDCALL
  $L000616 . . . . . . . . . . .	L Near	 00000E37 _TEXT	
UnitTesting_Circle_Name  . . . .	P Near	 00000E5F _TEXT	Length= 00000016 Public STDCALL
  $L000614 . . . . . . . . . . .	L Near	 00000E6E _TEXT	
UnitTesting_Circle_Type  . . . .	P Near	 00000EB3 _TEXT	Length= 00000015 Public STDCALL
  $L000613 . . . . . . . . . . .	L Near	 00000EC1 _TEXT	
UnitTesting_Circle_get_Radius  .	P Near	 00000E75 _TEXT	Length= 00000019 Public STDCALL
  $L000609 . . . . . . . . . . .	L Near	 00000E87 _TEXT	
UnitTesting_Circle_put_Radius  .	P Near	 00000E8E _TEXT	Length= 00000025 Public STDCALL
  $L000610 . . . . . . . . . . .	L Near	 00000EA8 _TEXT	
UnitTesting_Circle . . . . . . .	P Near	 00000EC8 _TEXT	Length= 00000027 Public STDCALL
UnitTesting_Rnd_NextDblEx  . . .	P Near	 00000F51 _TEXT	Length= 000000F9 Public STDCALL
  $L000852 . . . . . . . . . . .	L Near	 00001008 _TEXT	
  $L000853 . . . . . . . . . . .	L Near	 0000100A _TEXT	
  $L000532 . . . . . . . . . . .	L Near	 00001043 _TEXT	
UnitTesting_Rnd_NextDbl  . . . .	P Near	 00000EEF _TEXT	Length= 00000015 Public STDCALL
  $L000535 . . . . . . . . . . .	L Near	 00000EFD _TEXT	
UnitTesting_Rnd_NextIntEx  . . .	P Near	 0000104A _TEXT	Length= 000000E1 Public STDCALL
  $L000854 . . . . . . . . . . .	L Near	 000010F9 _TEXT	
  $L000855 . . . . . . . . . . .	L Near	 000010FB _TEXT	
  $L000534 . . . . . . . . . . .	L Near	 00001124 _TEXT	
UnitTesting_Rnd_NextInt  . . . .	P Near	 00000F04 _TEXT	Length= 00000015 Public STDCALL
  $L000536 . . . . . . . . . . .	L Near	 00000F12 _TEXT	
UnitTesting_Rnd_setSeed  . . . .	P Near	 00000F39 _TEXT	Length= 00000018 Public STDCALL
  $L000530 . . . . . . . . . . .	L Near	 00000F48 _TEXT	
UnitTesting_Rnd  . . . . . . . .	P Near	 00000F19 _TEXT	Length= 00000020 Public STDCALL
UnitTesting_ShapeFactoryCreator_Create . P Near	  000011BE _TEXT	Length= 00000114 Public STDCALL
  $L000866 . . . . . . . . . . .	L Near	 000011D6 _TEXT	
  $L000867 . . . . . . . . . . .	L Near	 000011D8 _TEXT	
  $L000869 . . . . . . . . . . .	L Near	 000011F2 _TEXT	
  $L000872 . . . . . . . . . . .	L Near	 0000122C _TEXT	
  $L000873 . . . . . . . . . . .	L Near	 0000122E _TEXT	
  $L000870 . . . . . . . . . . .	L Near	 00001241 _TEXT	
  $L000876 . . . . . . . . . . .	L Near	 00001275 _TEXT	
  $L000877 . . . . . . . . . . .	L Near	 00001277 _TEXT	
  $L000874 . . . . . . . . . . .	L Near	 00001284 _TEXT	
  $L000880 . . . . . . . . . . .	L Near	 000012B8 _TEXT	
  $L000881 . . . . . . . . . . .	L Near	 000012BA _TEXT	
  $L000878 . . . . . . . . . . .	L Near	 000012C5 _TEXT	
  $L000875 . . . . . . . . . . .	L Near	 000012C5 _TEXT	
  $L000871 . . . . . . . . . . .	L Near	 000012C5 _TEXT	
  $L000671 . . . . . . . . . . .	L Near	 000012C9 _TEXT	
UnitTesting_ShapeFactoryCreator_Destructor . P Near   00001142 _TEXT	Length= 00000066 Public STDCALL
  $L000860 . . . . . . . . . . .	L Near	 0000116F _TEXT	
  $L000857 . . . . . . . . . . .	L Near	 00001175 _TEXT	
  $L000864 . . . . . . . . . . .	L Near	 0000119B _TEXT	
  $L000861 . . . . . . . . . . .	L Near	 000011A1 _TEXT	
  $L000674 . . . . . . . . . . .	L Near	 000011A1 _TEXT	
UnitTesting_ShapeFactoryCreator 	P Near	 000011A8 _TEXT	Length= 00000016 Public STDCALL
UnitTesting_Shape  . . . . . . .	P Near	 0000112B _TEXT	Length= 00000017 Public STDCALL
UnitTesting_Square_ComputeArea .	P Near	 000012D2 _TEXT	Length= 00000034 Public STDCALL
  $L000638 . . . . . . . . . . .	L Near	 000012FF _TEXT	
UnitTesting_Square_Destructor  .	P Near	 00001306 _TEXT	Length= 0000002D Public STDCALL
  $L000628 . . . . . . . . . . .	L Near	 0000132C _TEXT	
UnitTesting_Square_DrawCube  . .	P Near	 00001354 _TEXT	Length= 00000021 Public STDCALL
  $L000644 . . . . . . . . . . .	L Near	 0000136E _TEXT	
UnitTesting_Square_Draw  . . . .	P Near	 00001333 _TEXT	Length= 00000021 Public STDCALL
  $L000642 . . . . . . . . . . .	L Near	 0000134D _TEXT	
UnitTesting_Square_Name  . . . .	P Near	 000013B3 _TEXT	Length= 00000016 Public STDCALL
  $L000640 . . . . . . . . . . .	L Near	 000013C2 _TEXT	
UnitTesting_Square_Type  . . . .	P Near	 000013C9 _TEXT	Length= 00000015 Public STDCALL
  $L000639 . . . . . . . . . . .	L Near	 000013D7 _TEXT	
UnitTesting_Square_get_Height  .	P Near	 00001375 _TEXT	Length= 00000019 Public STDCALL
  $L000635 . . . . . . . . . . .	L Near	 00001387 _TEXT	
UnitTesting_Square_get_Width . .	P Near	 00001405 _TEXT	Length= 00000019 Public STDCALL
  $L000631 . . . . . . . . . . .	L Near	 00001417 _TEXT	
UnitTesting_Square_put_Height  .	P Near	 0000138E _TEXT	Length= 00000025 Public STDCALL
  $L000636 . . . . . . . . . . .	L Near	 000013A8 _TEXT	
UnitTesting_Square_put_Width . .	P Near	 0000141E _TEXT	Length= 00000025 Public STDCALL
  $L000632 . . . . . . . . . . .	L Near	 00001438 _TEXT	
UnitTesting_Square . . . . . . .	P Near	 000013DE _TEXT	Length= 00000027 Public STDCALL
UnitTesting_TestSwitch_RunTest .	P Near	 00001443 _TEXT	Length= 000000E8 Public STDCALL
  $L000883 . . . . . . . . . . .	L Near	 00001487 _TEXT	
  $L000884 . . . . . . . . . . .	L Near	 0000149F _TEXT	
  $L000885 . . . . . . . . . . .	L Near	 000014B4 _TEXT	
  $L000886 . . . . . . . . . . .	L Near	 000014C9 _TEXT	
  $L000887 . . . . . . . . . . .	L Near	 000014DE _TEXT	
  $L000888 . . . . . . . . . . .	L Near	 000014F1 _TEXT	
  $L000889 . . . . . . . . . . .	L Near	 00001506 _TEXT	
  $L000882 . . . . . . . . . . .	L Near	 00001522 _TEXT	
  $L000581 . . . . . . . . . . .	L Near	 00001522 _TEXT	
UnitTesting_TestVirtuals_ExponentialRV_Name  P Near   00001544 _TEXT	Length= 00000016 Public STDCALL
  $L000574 . . . . . . . . . . .	L Near	 00001553 _TEXT	
UnitTesting_TestVirtuals_ExponentialRV_Sample  P Near   0000155A _TEXT	Length= 00000040 Public STDCALL
  $L000573 . . . . . . . . . . .	L Near	 00001593 _TEXT	
UnitTesting_TestVirtuals_ExponentialRV_get_MU  P Near   0000152B _TEXT	Length= 00000019 Public STDCALL
  $L000570 . . . . . . . . . . .	L Near	 0000153D _TEXT	
UnitTesting_TestVirtuals_ExponentialRV . P Near	  0000159A _TEXT	Length= 00000036 Public STDCALL
UnitTesting_TestVirtuals_RandomVariable_Name . P Near   000015D0 _TEXT	Length= 00000016 Public STDCALL
  $L000541 . . . . . . . . . . .	L Near	 000015DF _TEXT	
UnitTesting_TestVirtuals_RandomVariable  P Near	  000015E6 _TEXT	Length= 00000017 Public STDCALL
UnitTesting_TestVirtuals_SimpleRV_Name . P Near	  000015FD _TEXT	Length= 00000016 Public STDCALL
  $L000546 . . . . . . . . . . .	L Near	 0000160C _TEXT	
UnitTesting_TestVirtuals_SimpleRV_Sample . P Near   00001613 _TEXT	Length= 00000015 Public STDCALL
  $L000545 . . . . . . . . . . .	L Near	 00001621 _TEXT	
UnitTesting_TestVirtuals_SimpleRV 	P Near	 00001628 _TEXT	Length= 0000001F Public STDCALL
UnitTesting_TestVirtuals_UniformRV_Name  P Near	  00001647 _TEXT	Length= 00000016 Public STDCALL
  $L000564 . . . . . . . . . . .	L Near	 00001656 _TEXT	
UnitTesting_TestVirtuals_UniformRV_Sample  P Near   0000165D _TEXT	Length= 00000060 Public STDCALL
  $L000563 . . . . . . . . . . .	L Near	 000016B6 _TEXT	
UnitTesting_TestVirtuals_UniformRV_get_U . P Near   000016BD _TEXT	Length= 00000019 Public STDCALL
  $L000553 . . . . . . . . . . .	L Near	 000016CF _TEXT	
UnitTesting_TestVirtuals_UniformRV_get_V . P Near   00001746 _TEXT	Length= 00000019 Public STDCALL
  $L000557 . . . . . . . . . . .	L Near	 00001758 _TEXT	
UnitTesting_TestVirtuals_UniformRV_put_U . P Near   000016D6 _TEXT	Length= 00000025 Public STDCALL
  $L000554 . . . . . . . . . . .	L Near	 000016F0 _TEXT	
UnitTesting_TestVirtuals_UniformRV_put_V . P Near   0000175F _TEXT	Length= 00000025 Public STDCALL
  $L000558 . . . . . . . . . . .	L Near	 00001779 _TEXT	
UnitTesting_TestVirtuals_UniformRV .	P Near	 000016FB _TEXT	Length= 0000004B Public STDCALL
UnitTesting_Triangle_ComputeArea .	P Near	 000017C2 _TEXT	Length= 0000004F Public STDCALL
  $L000664 . . . . . . . . . . .	L Near	 0000180A _TEXT	
UnitTesting_Triangle_Destructor 	P Near	 00001811 _TEXT	Length= 0000002F Public STDCALL
  $L000665 . . . . . . . . . . .	L Near	 00001839 _TEXT	
UnitTesting_Triangle_DrawPiramid .	P Near	 00001861 _TEXT	Length= 00000021 Public STDCALL
  $L000667 . . . . . . . . . . .	L Near	 0000187B _TEXT	
UnitTesting_Triangle_Draw  . . .	P Near	 00001840 _TEXT	Length= 00000021 Public STDCALL
  $L000662 . . . . . . . . . . .	L Near	 0000185A _TEXT	
UnitTesting_Triangle_Name  . . .	P Near	 000018C0 _TEXT	Length= 00000016 Public STDCALL
  $L000660 . . . . . . . . . . .	L Near	 000018CF _TEXT	
UnitTesting_Triangle_Type  . . .	P Near	 000018D6 _TEXT	Length= 00000015 Public STDCALL
  $L000659 . . . . . . . . . . .	L Near	 000018E4 _TEXT	
UnitTesting_Triangle_get_Base  .	P Near	 00001784 _TEXT	Length= 00000019 Public STDCALL
  $L000652 . . . . . . . . . . .	L Near	 00001796 _TEXT	
UnitTesting_Triangle_get_High  .	P Near	 00001882 _TEXT	Length= 00000019 Public STDCALL
  $L000656 . . . . . . . . . . .	L Near	 00001894 _TEXT	
UnitTesting_Triangle_put_Base  .	P Near	 0000179D _TEXT	Length= 00000025 Public STDCALL
  $L000653 . . . . . . . . . . .	L Near	 000017B7 _TEXT	
UnitTesting_Triangle_put_High  .	P Near	 0000189B _TEXT	Length= 00000025 Public STDCALL
  $L000657 . . . . . . . . . . .	L Near	 000018B5 _TEXT	
UnitTesting_Triangle . . . . . .	P Near	 000018EB _TEXT	Length= 00000027 Public STDCALL
UnitTesting_Visitor_Visit  . . .	P Near	 00001912 _TEXT	Length= 00000130 Public STDCALL
  $L000893 . . . . . . . . . . .	L Near	 00001956 _TEXT	
  $L000894 . . . . . . . . . . .	L Near	 00001985 _TEXT	
  $L000895 . . . . . . . . . . .	L Near	 000019B4 _TEXT	
  $L000896 . . . . . . . . . . .	L Near	 000019E3 _TEXT	
  $L000892 . . . . . . . . . . .	L Near	 000019E4 _TEXT	
  $L000897 . . . . . . . . . . .	L Near	 000019FE _TEXT	
  $L000899 . . . . . . . . . . .	L Near	 00001A16 _TEXT	
  $L000676 . . . . . . . . . . .	L Near	 00001A39 _TEXT	
WriteConsoleA  . . . . . . . . .	P Near	 00000000 FLAT	Length= 00000000 External STDCALL
WriteConsoleOutputAttribute  . .	P Near	 00000000 FLAT	Length= 00000000 External STDCALL
WriteConsoleOutputCharacterA . .	P Near	 00000000 FLAT	Length= 00000000 External STDCALL
WriteFile  . . . . . . . . . . .	P Near	 00000000 FLAT	Length= 00000000 External STDCALL
__System_Hpp_Runtime_Init  . . .	P Near	 00002090 _TEXT	Length= 00000098 Public STDCALL
__member_Init@LastFeatures_DoubleProxy . P Near	  00001A42 _TEXT	Length= 00000019 Public STDCALL
__member_Init@LastFeatures_TestProperties_node . P Near	  00001B43 _TEXT	Length= 00000028 Public STDCALL
__member_Init@LastFeatures_TestProperties  P Near   00001A5B _TEXT	Length= 000000E8 Public STDCALL
  $L000901 . . . . . . . . . . .	L Near	 00001A91 _TEXT	
  $L000902 . . . . . . . . . . .	L Near	 00001A93 _TEXT	
  $L000903 . . . . . . . . . . .	L Near	 00001AA0 _TEXT	
  $L000904 . . . . . . . . . . .	L Near	 00001AD0 _TEXT	
  $L000905 . . . . . . . . . . .	L Near	 00001AD2 _TEXT	
  $L000906 . . . . . . . . . . .	L Near	 00001AE0 _TEXT	
  $L000907 . . . . . . . . . . .	L Near	 00001B1C _TEXT	
  $L000908 . . . . . . . . . . .	L Near	 00001B1E _TEXT	
  $L000909 . . . . . . . . . . .	L Near	 00001B2C _TEXT	
__member_Init@UnitTesting_Circle .	P Near	 00001B6B _TEXT	Length= 00000019 Public STDCALL
__member_Init@UnitTesting_Rnd  .	P Near	 00001B84 _TEXT	Length= 00000043 Public STDCALL
__member_Init@UnitTesting_ShapeFactoryCreator  P Near   00001BC7 _TEXT	Length= 00000030 Public STDCALL
  $L000910 . . . . . . . . . . .	L Near	 00001BE0 _TEXT	
  $L000911 . . . . . . . . . . .	L Near	 00001BE2 _TEXT	
__member_Init@UnitTesting_Square .	P Near	 00001BF7 _TEXT	Length= 00000021 Public STDCALL
__member_Init@UnitTesting_Triangle .	P Near	 00001C18 _TEXT	Length= 00000021 Public STDCALL
__purecall . . . . . . . . . . .	P Near	 00000000 FLAT	Length= 00000000 External STDCALL


Symbols:

                N a m e                 Type     Value    Attr

$S000542 . . . . . . . . . . . .	Byte	 000000A0 _DATA	
$S000547 . . . . . . . . . . . .	Byte	 000000D1 _DATA	
$S000565 . . . . . . . . . . . .	Byte	 000000FB _DATA	
$S000575 . . . . . . . . . . . .	Byte	 000000E3 _DATA	
$S000583 . . . . . . . . . . . .	Byte	 00000242 _DATA	
$S000584 . . . . . . . . . . . .	Byte	 00000122 _DATA	
$S000585 . . . . . . . . . . . .	Byte	 00000196 _DATA	
$S000586 . . . . . . . . . . . .	Byte	 00000181 _DATA	
$S000588 . . . . . . . . . . . .	Byte	 000001AA _DATA	
$S000590 . . . . . . . . . . . .	Byte	 0000016F _DATA	
$S000591 . . . . . . . . . . . .	Byte	 00000230 _DATA	
$S000615 . . . . . . . . . . . .	Byte	 0000011B _DATA	
$S000617 . . . . . . . . . . . .	Byte	 000001C3 _DATA	
$S000620 . . . . . . . . . . . .	Byte	 00000266 _DATA	
$S000622 . . . . . . . . . . . .	Byte	 000001F8 _DATA	
$S000629 . . . . . . . . . . . .	Byte	 00000284 _DATA	
$S000641 . . . . . . . . . . . .	Byte	 00000252 _DATA	
$S000643 . . . . . . . . . . . .	Byte	 0000020A _DATA	
$S000645 . . . . . . . . . . . .	Byte	 000001D5 _DATA	
$S000661 . . . . . . . . . . . .	Byte	 00000259 _DATA	
$S000663 . . . . . . . . . . . .	Byte	 0000021C _DATA	
$S000666 . . . . . . . . . . . .	Byte	 000002A2 _DATA	
$S000668 . . . . . . . . . . . .	Byte	 000001E5 _DATA	
$S000679 . . . . . . . . . . . .	Byte	 000002D4 _DATA	
$S000681 . . . . . . . . . . . .	Byte	 000002E5 _DATA	
$S000683 . . . . . . . . . . . .	Byte	 000002F6 _DATA	
$S000685 . . . . . . . . . . . .	Byte	 000000A7 _DATA	
$S000697 . . . . . . . . . . . .	Byte	 00000151 _DATA	
$S000702 . . . . . . . . . . . .	Byte	 00000132 _DATA	
$S000758 . . . . . . . . . . . .	Byte	 0000010F _DATA	
$S000759 . . . . . . . . . . . .	Byte	 00000262 _DATA	
$S000773 . . . . . . . . . . . .	Byte	 000000C0 _DATA	
$S000775 . . . . . . . . . . . .	Byte	 000002C2 _DATA	
@@class_vptr_vtbl@@__LastFeatures_DoubleProxy  DWord    00000000 _DATA	
@@class_vptr_vtbl@@__LastFeatures_HObject  DWord    00000020 _DATA	
@@class_vptr_vtbl@@__LastFeatures_SimpleObject . DWord	  00000010 _DATA	
@@class_vptr_vtbl@@__LastFeatures_SwapperObject  DWord	  00000024 _DATA	
@@class_vptr_vtbl@@__UnitTesting_Circle  DWord	  00000028 _DATA	
@@class_vptr_vtbl@@__UnitTesting_Shape . DWord	  00000040 _DATA	
@@class_vptr_vtbl@@__UnitTesting_Square  DWord	  00000054 _DATA	
@@class_vptr_vtbl@@__UnitTesting_TestVirtuals_ExponentialRV  DWord    00000068 _DATA	
@@class_vptr_vtbl@@__UnitTesting_TestVirtuals_RandomVariable . DWord    00000070 _DATA	
@@class_vptr_vtbl@@__UnitTesting_TestVirtuals_SimpleRV . DWord	  00000078 _DATA	
@@class_vptr_vtbl@@__UnitTesting_TestVirtuals_UniformRV  DWord	  00000080 _DATA	
@@class_vptr_vtbl@@__UnitTesting_Triangle  DWord    00000088 _DATA	
@CodeSize  . . . . . . . . . . .	Number	 00000000h   
@DataSize  . . . . . . . . . . .	Number	 00000000h   
@Interface . . . . . . . . . . .	Number	 00000003h   
@Model . . . . . . . . . . . . .	Number	 00000007h   
@code  . . . . . . . . . . . . .	Text   	 _TEXT
@data  . . . . . . . . . . . . .	Text   	 FLAT
@fardata?  . . . . . . . . . . .	Text   	 FLAT
@fardata . . . . . . . . . . . .	Text   	 FLAT
@stack . . . . . . . . . . . . .	Text   	 FLAT
CREATE_ALWAYS  . . . . . . . . .	Number	 00000002h   
CREATE_NEW . . . . . . . . . . .	Number	 00000001h   
ConsoleHandle  . . . . . . . . .	DWord	 00000000 FLAT	External STDCALL
CreateFile . . . . . . . . . . .	Text   	 CreateFileA
ENABLE_ECHO_INPUT  . . . . . . .	Number	 00000004h   
ENABLE_LINE_INPUT  . . . . . . .	Number	 00000002h   
ENABLE_MOUSE_INPUT . . . . . . .	Number	 00000010h   
ENABLE_PROCESSED_INPUT . . . . .	Number	 00000001h   
ENABLE_PROCESSED_OUTPUT  . . . .	Number	 00000001h   
ENABLE_WINDOW_INPUT  . . . . . .	Number	 00000008h   
ENABLE_WRAP_AT_EOL_OUTPUT  . . .	Number	 00000002h   
FILE_APPEND_DATA . . . . . . . .	Number	 00000004h   
FILE_ATTRIBUTE_ARCHIVE . . . . .	Number	 00000020h   
FILE_ATTRIBUTE_COMPRESSED  . . .	Number	 00000800h   
FILE_ATTRIBUTE_DEVICE  . . . . .	Number	 00000040h   
FILE_ATTRIBUTE_DIRECTORY . . . .	Number	 00000010h   
FILE_ATTRIBUTE_ENCRYPTED . . . .	Number	 00004000h   
FILE_ATTRIBUTE_HIDDEN  . . . . .	Number	 00000002h   
FILE_ATTRIBUTE_NORMAL  . . . . .	Number	 00000080h   
FILE_ATTRIBUTE_NOT_CONTENT_INDEXED .	Number	 00002000h   
FILE_ATTRIBUTE_OFFLINE . . . . .	Number	 00001000h   
FILE_ATTRIBUTE_READONLY  . . . .	Number	 00000001h   
FILE_ATTRIBUTE_REPARSE_POINT . .	Number	 00000400h   
FILE_ATTRIBUTE_SPARSE_FILE . . .	Number	 00000200h   
FILE_ATTRIBUTE_SYSTEM  . . . . .	Number	 00000004h   
FILE_ATTRIBUTE_TEMPORARY . . . .	Number	 00000100h   
FILE_BEGIN . . . . . . . . . . .	Number	 00000000h   
FILE_CURRENT . . . . . . . . . .	Number	 00000001h   
FILE_DELETE_CHILD  . . . . . . .	Number	 00000040h   
FILE_END . . . . . . . . . . . .	Number	 00000002h   
FILE_READ_DATA . . . . . . . . .	Number	 00000001h   
FILE_SHARE_DELETE  . . . . . . .	Number	 00000004h   
FILE_SHARE_READ  . . . . . . . .	Number	 00000001h   
FILE_SHARE_WRITE . . . . . . . .	Number	 00000002h   
FILE_WRITE_DATA  . . . . . . . .	Number	 00000002h   
FOCUS_EVENT  . . . . . . . . . .	Number	 00000010h   
File_INVALID_HANDLE_VALUE  . . .	Number	 FFFFFFFFh   
File_INVALID_SET_FILE_POINTER  .	Number	 FFFFFFFFh   
GENERIC_ALL  . . . . . . . . . .	Number	 10000000h   
GENERIC_EXECUTE  . . . . . . . .	Number	 20000000h   
GENERIC_READ . . . . . . . . . .	Number	 -80000000h   
GENERIC_WRITE  . . . . . . . . .	Number	 40000000h   
GetCommandLine . . . . . . . . .	Text   	 GetCommandLineA
HEAP_GENERATE_EXCEPTIONS . . . .	Number	 00000004h   
HEAP_GROWABLE  . . . . . . . . .	Number	 00000002h   
HEAP_NO_SERIALIZE  . . . . . . .	Number	 00000001h   
HEAP_REALLOC_IN_PLACE_ONLY . . .	Number	 00000010h   
HEAP_ZERO_MEMORY . . . . . . . .	Number	 00000008h   
INVALID_HANDLE_VALUE . . . . . .	Number	 -00000001h   
KEY_EVENT  . . . . . . . . . . .	Number	 00000001h   
MENU_EVENT . . . . . . . . . . .	Number	 00000008h   
MOUSE_EVENT  . . . . . . . . . .	Number	 00000002h   
OPEN_ALWAYS  . . . . . . . . . .	Number	 00000004h   
OPEN_EXISTING  . . . . . . . . .	Number	 00000003h   
PeekConsoleInput . . . . . . . .	Text   	 PeekConsoleInputA
ReadConsoleInput . . . . . . . .	Text   	 ReadConsoleInputA
ReadConsole  . . . . . . . . . .	Text   	 ReadConsoleA
STD_INPUT_HANDLE . . . . . . . .	Number	 -0000000Ah   
STD_OUTPUT_HANDLE  . . . . . . .	Number	 -0000000Bh   
SetConsoleTitle  . . . . . . . .	Text   	 SetConsoleTitleA
TRUNCATE_EXISTING  . . . . . . .	Number	 00000005h   
UnitTesting_Rnd_a  . . . . . . .	DWord	 00000345 _DATA	
UnitTesting_Rnd_m  . . . . . . .	DWord	 00000349 _DATA	
UnitTesting_Rnd_q  . . . . . . .	DWord	 0000034D _DATA	
UnitTesting_Rnd_r  . . . . . . .	DWord	 00000351 _DATA	
UnitTesting_Rnd_seed . . . . . .	DWord	 00000341 _DATA	
UnitTesting_TestSwitch_close . .	Number	 00000002h   
UnitTesting_TestSwitch_open  . .	Number	 00000001h   
UnitTesting_TestSwitch_read  . .	Number	 00000004h   
UnitTesting_TestSwitch_write . .	Number	 00000003h   
WINDOW_BUFFER_SIZE_EVENT . . . .	Number	 00000004h   
WriteConsoleOutputCharacter  . .	Text   	 WriteConsoleOutputCharacterA
WriteConsole . . . . . . . . . .	Text   	 WriteConsoleA
___argc  . . . . . . . . . . . .	DWord	 0000033D _DATA	
___argv  . . . . . . . . . . . .	DWord	 00000339 _DATA	
__computer . . . . . . . . . . .	Byte	 00000319 _DATA	
__osver  . . . . . . . . . . . .	DWord	 00000309 _DATA	
__winmajor . . . . . . . . . . .	DWord	 00000311 _DATA	
__winminor . . . . . . . . . . .	DWord	 0000030D _DATA	
__winver . . . . . . . . . . . .	DWord	 00000315 _DATA	
exit . . . . . . . . . . . . . .	Text   	 INVOKE ExitProcess,0

	   0 Warnings
	   0 Errors
